
main.exe:     file format coff-h8300
main.exe
architecture: h8300h, flags 0x00000332:
EXEC_P, HAS_SYMS, HAS_LOCALS, D_PAGED, BFD_IS_RELAXABLE
start address 0x00001f1a

Sections:
Idx Name          Size      VMA       LMA       File off  Algn
  0 .vectors      000000f4  00000000  00000000  00000148  2**1
                  CONTENTS, ALLOC, LOAD, READONLY
  1 .text         00002c1a  00000100  00000100  0000023c  2**1
                  CONTENTS, ALLOC, LOAD, CODE
  2 .rodata       0000041e  00002d1a  00002d1a  00002e56  2**1
                  CONTENTS, ALLOC, LOAD, CODE
  3 .tors         00000010  00003138  00003138  00003274  2**1
                  CONTENTS, ALLOC, LOAD, CODE
  4 .data         00000000  00ffef10  00003148  00000000  2**1
                  ALLOC, LOAD, DATA
  5 .bss          00000271  00ffef10  00ffef10  00000000  2**1
                  ALLOC
  6 .stack        00000000  00ffff0c  00ffff0c  00000000  2**1
                  ALLOC, LOAD
SYMBOL TABLE:
[  0](sec  2)(fl 0x00)(ty   0)(scl   3) (nx 0) 0x00000100 main.o
[  1](sec -2)(fl 0x00)(ty   0)(scl 103) (nx 1) 0x00000023 main.c
File 
[  3](sec  3)(fl 0x00)(ty   0)(scl   3) (nx 0) 0x00002d4e .LC0
[  4](sec  3)(fl 0x00)(ty   0)(scl   3) (nx 0) 0x00002d54 .LC1
[  5](sec  3)(fl 0x00)(ty   0)(scl   3) (nx 0) 0x00002d57 .LC2
[  6](sec  3)(fl 0x00)(ty   0)(scl   3) (nx 0) 0x00002d59 .LC3
[  7](sec  3)(fl 0x00)(ty   0)(scl   3) (nx 0) 0x00002d5b .LC4
[  8](sec  3)(fl 0x00)(ty   0)(scl   3) (nx 0) 0x00002d5d .LC5
[  9](sec  2)(fl 0x00)(ty   0)(scl   6) (nx 0) 0x000001c8 .L3
[ 10](sec  2)(fl 0x00)(ty   0)(scl   6) (nx 0) 0x000001d2 .L6
[ 11](sec  2)(fl 0x00)(ty   0)(scl   6) (nx 0) 0x000001f6 .L4
[ 12](sec  2)(fl 0x00)(ty   0)(scl   6) (nx 0) 0x00000212 .L7
[ 13](sec  2)(fl 0x00)(ty   0)(scl   6) (nx 0) 0x0000021c .L10
[ 14](sec  2)(fl 0x00)(ty   0)(scl   6) (nx 0) 0x00000240 .L8
[ 15](sec  2)(fl 0x00)(ty   0)(scl   6) (nx 0) 0x0000025c .L11
[ 16](sec  2)(fl 0x00)(ty   0)(scl   6) (nx 0) 0x00000266 .L14
[ 17](sec  2)(fl 0x00)(ty   0)(scl   6) (nx 0) 0x0000028a .L12
[ 18](sec  2)(fl 0x00)(ty   0)(scl   6) (nx 0) 0x000002a6 .L15
[ 19](sec  2)(fl 0x00)(ty   0)(scl   6) (nx 0) 0x000002b0 .L18
[ 20](sec  2)(fl 0x00)(ty   0)(scl   6) (nx 0) 0x000002d4 .L16
[ 21](sec  2)(fl 0x00)(ty   0)(scl   6) (nx 0) 0x0000037c .L22
[ 22](sec  2)(fl 0x00)(ty   0)(scl   6) (nx 0) 0x000003fa .L25
[ 23](sec  3)(fl 0x00)(ty   0)(scl   3) (nx 0) 0x00002d64 .LC6
[ 24](sec  3)(fl 0x00)(ty   0)(scl   3) (nx 0) 0x00002d69 .LC7
[ 25](sec  2)(fl 0x00)(ty   0)(scl   6) (nx 0) 0x00000478 .L27
[ 26](sec  2)(fl 0x00)(ty   0)(scl   3) (nx 1) 0x00000100 .text
AUX scnlen 0x3d6 nreloc 75 nlnno 0
[ 28](sec  5)(fl 0x00)(ty   0)(scl   3) (nx 1) 0x00ffef10 .data
AUX scnlen 0x0 nreloc 0 nlnno 0
[ 30](sec  6)(fl 0x00)(ty   0)(scl   3) (nx 1) 0x00ffef10 .bss
AUX scnlen 0x0 nreloc 0 nlnno 0
[ 32](sec  3)(fl 0x00)(ty   0)(scl   3) (nx 1) 0x00002d1a .rodata
AUX scnlen 0x52 nreloc 0 nlnno 0
[ 34](sec  2)(fl 0x00)(ty   0)(scl   3) (nx 0) 0x000004a4 timer.o
[ 35](sec -2)(fl 0x00)(ty   0)(scl 103) (nx 1) 0x00000033 timer.c
File 
[ 37](sec  2)(fl 0x00)(ty   0)(scl   6) (nx 0) 0x000004d6 .L3
[ 38](sec  2)(fl 0x00)(ty   0)(scl   6) (nx 0) 0x000004e4 .L9
[ 39](sec  2)(fl 0x00)(ty   0)(scl   6) (nx 0) 0x000004fc .L4
[ 40](sec  2)(fl 0x00)(ty   0)(scl   6) (nx 0) 0x00000610 .L14
[ 41](sec  2)(fl 0x00)(ty   0)(scl   6) (nx 0) 0x000005a4 .L15
[ 42](sec  2)(fl 0x00)(ty   0)(scl   6) (nx 0) 0x000005d6 .L16
[ 43](sec  2)(fl 0x00)(ty   0)(scl   6) (nx 0) 0x000006b0 .L19
[ 44](sec  2)(fl 0x00)(ty   0)(scl   3) (nx 1) 0x000004a4 .text
AUX scnlen 0x246 nreloc 36 nlnno 0
[ 46](sec  5)(fl 0x00)(ty   0)(scl   3) (nx 1) 0x00ffef10 .data
AUX scnlen 0x0 nreloc 0 nlnno 0
[ 48](sec  6)(fl 0x00)(ty   0)(scl   3) (nx 1) 0x00ffef10 .bss
AUX scnlen 0x0 nreloc 0 nlnno 0
[ 50](sec  2)(fl 0x00)(ty   0)(scl   3) (nx 0) 0x000006ca sci.o
[ 51](sec -2)(fl 0x00)(ty   0)(scl 103) (nx 1) 0x00000088 sci.c
File 
[ 53](sec  2)(fl 0x00)(ty   0)(scl   6) (nx 0) 0x000006f2 .L5
[ 54](sec  2)(fl 0x00)(ty   0)(scl   6) (nx 0) 0x0000070e .L7
[ 55](sec  2)(fl 0x00)(ty   0)(scl   6) (nx 0) 0x00000744 .L6
[ 56](sec  2)(fl 0x00)(ty   0)(scl   6) (nx 0) 0x00000722 .L8
[ 57](sec  2)(fl 0x00)(ty   0)(scl   6) (nx 0) 0x00000c6c .L1
[ 58](sec  2)(fl 0x00)(ty   0)(scl   6) (nx 0) 0x00000738 .L10
[ 59](sec  2)(fl 0x00)(ty   0)(scl   6) (nx 0) 0x00000770 .L12
[ 60](sec  2)(fl 0x00)(ty   0)(scl   6) (nx 0) 0x0000078a .L11
[ 61](sec  2)(fl 0x00)(ty   0)(scl   6) (nx 0) 0x000007bc .L13
[ 62](sec  2)(fl 0x00)(ty   0)(scl   6) (nx 0) 0x000007d0 .L14
[ 63](sec  2)(fl 0x00)(ty   0)(scl   6) (nx 0) 0x000007fa .L15
[ 64](sec  2)(fl 0x00)(ty   0)(scl   6) (nx 0) 0x00000810 .L16
[ 65](sec  2)(fl 0x00)(ty   0)(scl   6) (nx 0) 0x00000880 .L19
[ 66](sec  3)(fl 0x00)(ty   0)(scl   3) (nx 0) 0x00002d6c .L55
[ 67](sec  2)(fl 0x00)(ty   0)(scl   6) (nx 0) 0x00000a90 .L36
[ 68](sec  2)(fl 0x00)(ty   0)(scl   6) (nx 0) 0x000009c6 .L30
[ 69](sec  2)(fl 0x00)(ty   0)(scl   6) (nx 0) 0x00000856 .L18
[ 70](sec  2)(fl 0x00)(ty   0)(scl   6) (nx 0) 0x00000934 .L25
[ 71](sec  2)(fl 0x00)(ty   0)(scl   6) (nx 0) 0x000008ce .L21
[ 72](sec  2)(fl 0x00)(ty   0)(scl   6) (nx 0) 0x0000088c .L20
[ 73](sec  2)(fl 0x00)(ty   0)(scl   6) (nx 0) 0x00000a2c .L33
[ 74](sec  2)(fl 0x00)(ty   0)(scl   6) (nx 0) 0x00000a96 .L37
[ 75](sec  2)(fl 0x00)(ty   0)(scl   6) (nx 0) 0x000008f6 .L22
[ 76](sec  2)(fl 0x00)(ty   0)(scl   6) (nx 0) 0x0000091a .L23
[ 77](sec  2)(fl 0x00)(ty   0)(scl   6) (nx 0) 0x00000af8 .L24
[ 78](sec  2)(fl 0x00)(ty   0)(scl   6) (nx 0) 0x0000097a .L26
[ 79](sec  2)(fl 0x00)(ty   0)(scl   6) (nx 0) 0x000009b8 .L28
[ 80](sec  2)(fl 0x00)(ty   0)(scl   6) (nx 0) 0x000009ee .L31
[ 81](sec  2)(fl 0x00)(ty   0)(scl   6) (nx 0) 0x00000a12 .L32
[ 82](sec  2)(fl 0x00)(ty   0)(scl   6) (nx 0) 0x00000a54 .L34
[ 83](sec  2)(fl 0x00)(ty   0)(scl   6) (nx 0) 0x00000a78 .L35
[ 84](sec  2)(fl 0x00)(ty   0)(scl   6) (nx 0) 0x00000ac8 .L38
[ 85](sec  2)(fl 0x00)(ty   0)(scl   6) (nx 0) 0x00000aec .L39
[ 86](sec  2)(fl 0x00)(ty   0)(scl   6) (nx 0) 0x00000afe .L40
[ 87](sec  2)(fl 0x00)(ty   0)(scl   6) (nx 0) 0x00000b0a .L43
[ 88](sec  2)(fl 0x00)(ty   0)(scl   6) (nx 0) 0x00000b4c .L41
[ 89](sec  2)(fl 0x00)(ty   0)(scl   6) (nx 0) 0x00000b2e .L44
[ 90](sec  2)(fl 0x00)(ty   0)(scl   6) (nx 0) 0x00000b34 .L45
[ 91](sec  2)(fl 0x00)(ty   0)(scl   6) (nx 0) 0x00000b74 .L46
[ 92](sec  2)(fl 0x00)(ty   0)(scl   6) (nx 0) 0x00000bca .L49
[ 93](sec  2)(fl 0x00)(ty   0)(scl   6) (nx 0) 0x00000bb6 .L50
[ 94](sec  2)(fl 0x00)(ty   0)(scl   6) (nx 0) 0x00000bc2 .L51
[ 95](sec  2)(fl 0x00)(ty   0)(scl   6) (nx 0) 0x00000c20 .L53
[ 96](sec  2)(fl 0x00)(ty   0)(scl   6) (nx 0) 0x00000c48 .L54
[ 97](sec  3)(fl 0x00)(ty   0)(scl   3) (nx 0) 0x00002df0 .LC0
[ 98](sec  2)(fl 0x00)(ty   0)(scl   6) (nx 0) 0x00000ca8 .L58
[ 99](sec  2)(fl 0x00)(ty   0)(scl   6) (nx 0) 0x00000d2c .L64
[100](sec  6)(fl 0x00)(ty   0)(scl   3) (nx 0) 0x00ffef68 _Qin
[101](sec  6)(fl 0x00)(ty   0)(scl   3) (nx 0) 0x00ffef6c _Qout
[102](sec  2)(fl 0x00)(ty   0)(scl   6) (nx 0) 0x00000cd2 .L59
[103](sec  6)(fl 0x00)(ty   0)(scl   3) (nx 0) 0x00ffef70 _Qenable
[104](sec  2)(fl 0x00)(ty   0)(scl   6) (nx 0) 0x00000d26 .L60
[105](sec  2)(fl 0x00)(ty   0)(scl   6) (nx 0) 0x00000cf0 .L61
[106](sec  2)(fl 0x00)(ty   0)(scl   6) (nx 0) 0x00000cf6 .L62
[107](sec  6)(fl 0x00)(ty   0)(scl   3) (nx 0) 0x00ffef64 _Qend
[108](sec  2)(fl 0x00)(ty   0)(scl   6) (nx 0) 0x00000d20 .L63
[109](sec  6)(fl 0x00)(ty   0)(scl   3) (nx 0) 0x00ffef10 _Qbuf
[110](sec  2)(fl 0x00)(ty   0)(scl   6) (nx 0) 0x00000d34 .L56
[111](sec  2)(fl 0x00)(ty   0)(scl   6) (nx 0) 0x00000dae .L68
[112](sec  2)(fl 0x00)(ty   0)(scl   6) (nx 0) 0x00000dec .L71
[113](sec  2)(fl 0x00)(ty   0)(scl   6) (nx 0) 0x00000e02 .L72
[114](sec  2)(fl 0x00)(ty   0)(scl   6) (nx 0) 0x00000e1e .L74
[115](sec  2)(fl 0x00)(ty   0)(scl   6) (nx 0) 0x00000e46 .L78
[116](sec  2)(fl 0x00)(ty   0)(scl   6) (nx 0) 0x00000e54 .L80
[117](sec  2)(fl 0x00)(ty   0)(scl   6) (nx 0) 0x00000e6e .L77
[118](sec  3)(fl 0x00)(ty   0)(scl   3) (nx 0) 0x00002e03 .LC1
[119](sec  2)(fl 0x00)(ty   0)(scl   6) (nx 0) 0x00000e98 .L82
[120](sec  2)(fl 0x00)(ty   0)(scl   6) (nx 0) 0x00000efa .L83
[121](sec  2)(fl 0x00)(ty   0)(scl   6) (nx 0) 0x00000eb2 .L85
[122](sec  2)(fl 0x00)(ty   0)(scl   6) (nx 0) 0x00000ee4 .L87
[123](sec  2)(fl 0x00)(ty   0)(scl   6) (nx 0) 0x00000eee .L84
[124](sec  2)(fl 0x00)(ty   0)(scl   6) (nx 0) 0x00000f64 .L90
[125](sec  2)(fl 0x00)(ty   0)(scl   6) (nx 0) 0x00000f7e .L93
[126](sec  2)(fl 0x00)(ty   0)(scl   6) (nx 0) 0x00000fa4 .L91
[127](sec  2)(fl 0x00)(ty   0)(scl   3) (nx 1) 0x000006ca .text
AUX scnlen 0x9f0 nreloc 126 nlnno 0
[129](sec  5)(fl 0x00)(ty   0)(scl   3) (nx 1) 0x00ffef10 .data
AUX scnlen 0x0 nreloc 0 nlnno 0
[131](sec  6)(fl 0x00)(ty   0)(scl   3) (nx 1) 0x00ffef10 .bss
AUX scnlen 0x62 nreloc 0 nlnno 0
[133](sec  3)(fl 0x00)(ty   0)(scl   3) (nx 1) 0x00002d6c .rodata
AUX scnlen 0x9a nreloc 33 nlnno 0
[135](sec  2)(fl 0x00)(ty   0)(scl   3) (nx 0) 0x00001082 shell.o
[136](sec -2)(fl 0x00)(ty   0)(scl 103) (nx 1) 0x000000bc shell.c
File 
[138](sec  3)(fl 0x00)(ty   0)(scl   3) (nx 0) 0x00002e06 .LC0
[139](sec  3)(fl 0x00)(ty   0)(scl   3) (nx 0) 0x00002e0b .LC1
[140](sec  3)(fl 0x00)(ty   0)(scl   3) (nx 0) 0x00002e10 .LC2
[141](sec  3)(fl 0x00)(ty   0)(scl   3) (nx 0) 0x00002e15 .LC3
[142](sec  3)(fl 0x00)(ty   0)(scl   3) (nx 0) 0x00002e1a .LC4
[143](sec  3)(fl 0x00)(ty   0)(scl   3) (nx 0) 0x00002e1e .LC5
[144](sec  3)(fl 0x00)(ty   0)(scl   3) (nx 0) 0x00002e23 .LC6
[145](sec  3)(fl 0x00)(ty   0)(scl   3) (nx 0) 0x00002e28 .LC7
[146](sec  3)(fl 0x00)(ty   0)(scl   3) (nx 0) 0x00002e2f .LC8
[147](sec  3)(fl 0x00)(ty   0)(scl   3) (nx 0) 0x00002e35 .LC9
[148](sec  3)(fl 0x00)(ty   0)(scl   3) (nx 0) 0x00002e39 .LC10
[149](sec  3)(fl 0x00)(ty   0)(scl   3) (nx 0) 0x00002e41 .LC11
[150](sec  3)(fl 0x00)(ty   0)(scl   3) (nx 0) 0x00002ea7 .LC12
[151](sec  3)(fl 0x00)(ty   0)(scl   3) (nx 0) 0x00002ea9 .LC13
[152](sec  2)(fl 0x00)(ty   0)(scl   6) (nx 0) 0x000010c2 .L2
[153](sec  2)(fl 0x00)(ty   0)(scl   6) (nx 0) 0x0000116a .L1
[154](sec  2)(fl 0x00)(ty   0)(scl   6) (nx 0) 0x000010c8 .L3
[155](sec  2)(fl 0x00)(ty   0)(scl   6) (nx 0) 0x000010d8 .L6
[156](sec  2)(fl 0x00)(ty   0)(scl   6) (nx 0) 0x00001152 .L4
[157](sec  2)(fl 0x00)(ty   0)(scl   6) (nx 0) 0x00001144 .L5
[158](sec  2)(fl 0x00)(ty   0)(scl   6) (nx 0) 0x000011b2 .L9
[159](sec  2)(fl 0x00)(ty   0)(scl   6) (nx 0) 0x000011cc .L12
[160](sec  2)(fl 0x00)(ty   0)(scl   6) (nx 0) 0x00001318 .L10
[161](sec  2)(fl 0x00)(ty   0)(scl   6) (nx 0) 0x00001286 .L13
[162](sec  2)(fl 0x00)(ty   0)(scl   6) (nx 0) 0x000011fa .L14
[163](sec  2)(fl 0x00)(ty   0)(scl   6) (nx 0) 0x0000120a .L15
[164](sec  2)(fl 0x00)(ty   0)(scl   6) (nx 0) 0x00001224 .L18
[165](sec  2)(fl 0x00)(ty   0)(scl   6) (nx 0) 0x0000125e .L16
[166](sec  2)(fl 0x00)(ty   0)(scl   6) (nx 0) 0x0000130a .L11
[167](sec  2)(fl 0x00)(ty   0)(scl   6) (nx 0) 0x000012ba .L21
[168](sec  2)(fl 0x00)(ty   0)(scl   6) (nx 0) 0x000012cc .L24
[169](sec  2)(fl 0x00)(ty   0)(scl   6) (nx 0) 0x00001300 .L22
[170](sec  2)(fl 0x00)(ty   0)(scl   6) (nx 0) 0x00001328 .L25
[171](sec  2)(fl 0x00)(ty   0)(scl   6) (nx 0) 0x00001342 .L28
[172](sec  2)(fl 0x00)(ty   0)(scl   6) (nx 0) 0x00001432 .L26
[173](sec  2)(fl 0x00)(ty   0)(scl   6) (nx 0) 0x00001390 .L29
[174](sec  2)(fl 0x00)(ty   0)(scl   6) (nx 0) 0x00001370 .L30
[175](sec  2)(fl 0x00)(ty   0)(scl   6) (nx 0) 0x000013f2 .L32
[176](sec  2)(fl 0x00)(ty   0)(scl   6) (nx 0) 0x000013e8 .L33
[177](sec  2)(fl 0x00)(ty   0)(scl   6) (nx 0) 0x000013f4 .L34
[178](sec  2)(fl 0x00)(ty   0)(scl   6) (nx 0) 0x00001426 .L36
[179](sec  2)(fl 0x00)(ty   0)(scl   3) (nx 1) 0x00001082 .text
AUX scnlen 0x3ce nreloc 43 nlnno 0
[181](sec  5)(fl 0x00)(ty   0)(scl   3) (nx 1) 0x00ffef10 .data
AUX scnlen 0x0 nreloc 0 nlnno 0
[183](sec  6)(fl 0x00)(ty   0)(scl   3) (nx 1) 0x00ffef72 .bss
AUX scnlen 0x0 nreloc 0 nlnno 0
[185](sec  3)(fl 0x00)(ty   0)(scl   3) (nx 1) 0x00002e06 .rodata
AUX scnlen 0xb8 nreloc 24 nlnno 0
[187](sec  2)(fl 0x00)(ty   0)(scl   3) (nx 0) 0x0000144c command.o
[188](sec -2)(fl 0x00)(ty   0)(scl 103) (nx 1) 0x000000d3 command.c
File 
[190](sec  3)(fl 0x00)(ty   0)(scl   3) (nx 0) 0x00002ebe .LC0
[191](sec  3)(fl 0x00)(ty   0)(scl   3) (nx 0) 0x00002ec6 .LC1
[192](sec  3)(fl 0x00)(ty   0)(scl   3) (nx 0) 0x00002ede .LC2
[193](sec  3)(fl 0x00)(ty   0)(scl   3) (nx 0) 0x00002ef1 .LC3
[194](sec  2)(fl 0x00)(ty   0)(scl   6) (nx 0) 0x00001524 .L5
[195](sec  2)(fl 0x00)(ty   0)(scl   6) (nx 0) 0x0000153e .L6
[196](sec  3)(fl 0x00)(ty   0)(scl   3) (nx 0) 0x00002efd .LC4
[197](sec  3)(fl 0x00)(ty   0)(scl   3) (nx 0) 0x00002f04 .LC5
[198](sec  3)(fl 0x00)(ty   0)(scl   3) (nx 0) 0x00002f13 .LC6
[199](sec  2)(fl 0x00)(ty   0)(scl   6) (nx 0) 0x000016d4 .L14
[200](sec  2)(fl 0x00)(ty   0)(scl   6) (nx 0) 0x000016fa .L15
[201](sec  2)(fl 0x00)(ty   0)(scl   6) (nx 0) 0x000016e8 .L16
[202](sec  2)(fl 0x00)(ty   0)(scl   3) (nx 1) 0x0000144c .text
AUX scnlen 0x2f6 nreloc 46 nlnno 0
[204](sec  5)(fl 0x00)(ty   0)(scl   3) (nx 1) 0x00ffef10 .data
AUX scnlen 0x0 nreloc 0 nlnno 0
[206](sec  6)(fl 0x00)(ty   0)(scl   3) (nx 1) 0x00ffef72 .bss
AUX scnlen 0x0 nreloc 0 nlnno 0
[208](sec  3)(fl 0x00)(ty   0)(scl   3) (nx 1) 0x00002ebe .rodata
AUX scnlen 0x5a nreloc 0 nlnno 0
[210](sec  2)(fl 0x00)(ty   0)(scl   3) (nx 0) 0x00001730 bmp.o
[211](sec -2)(fl 0x00)(ty   0)(scl 103) (nx 1) 0x0000010e bmp.c
File 
[213](sec  2)(fl 0x00)(ty   0)(scl   6) (nx 0) 0x00001758 .L15
[214](sec  2)(fl 0x00)(ty   0)(scl   6) (nx 0) 0x00001766 .L18
[215](sec  2)(fl 0x00)(ty   0)(scl   6) (nx 0) 0x00001798 .L16
[216](sec  2)(fl 0x00)(ty   0)(scl   6) (nx 0) 0x00001810 .L21
[217](sec  2)(fl 0x00)(ty   0)(scl   6) (nx 0) 0x00001818 .L20
[218](sec  2)(fl 0x00)(ty   0)(scl   6) (nx 0) 0x0000186e .L19
[219](sec  2)(fl 0x00)(ty   0)(scl   6) (nx 0) 0x0000183a .L23
[220](sec  2)(fl 0x00)(ty   0)(scl   6) (nx 0) 0x00001842 .L22
[221](sec  2)(fl 0x00)(ty   0)(scl   6) (nx 0) 0x00001d10 _getbit
[222](sec  2)(fl 0x00)(ty   0)(scl   6) (nx 0) 0x0000190c .L24
[223](sec  2)(fl 0x00)(ty   0)(scl   6) (nx 0) 0x00001dd6 _letbit
[224](sec  2)(fl 0x00)(ty   0)(scl   6) (nx 0) 0x00001944 .L30
[225](sec  2)(fl 0x00)(ty   0)(scl   6) (nx 0) 0x00001b5a .L29
[226](sec  2)(fl 0x00)(ty   0)(scl   6) (nx 0) 0x00001992 .L31
[227](sec  2)(fl 0x00)(ty   0)(scl   6) (nx 0) 0x000019aa .L32
[228](sec  2)(fl 0x00)(ty   0)(scl   6) (nx 0) 0x000019c2 .L33
[229](sec  2)(fl 0x00)(ty   0)(scl   6) (nx 0) 0x000019d8 .L34
[230](sec  2)(fl 0x00)(ty   0)(scl   6) (nx 0) 0x00001a26 .L35
[231](sec  2)(fl 0x00)(ty   0)(scl   6) (nx 0) 0x00001a2e .Llt1
[232](sec  2)(fl 0x00)(ty   0)(scl   6) (nx 0) 0x00001a36 .Llt2
[233](sec  2)(fl 0x00)(ty   0)(scl   6) (nx 0) 0x00001a8c .L36
[234](sec  2)(fl 0x00)(ty   0)(scl   6) (nx 0) 0x00001ab4 .L37
[235](sec  2)(fl 0x00)(ty   0)(scl   6) (nx 0) 0x00001ac0 .L40
[236](sec  2)(fl 0x00)(ty   0)(scl   6) (nx 0) 0x00001b54 .L38
[237](sec  2)(fl 0x00)(ty   0)(scl   6) (nx 0) 0x00001ac6 .L41
[238](sec  2)(fl 0x00)(ty   0)(scl   6) (nx 0) 0x00001ada .L44
[239](sec  2)(fl 0x00)(ty   0)(scl   6) (nx 0) 0x00001b46 .L39
[240](sec  2)(fl 0x00)(ty   0)(scl   6) (nx 0) 0x00001aea .L45
[241](sec  2)(fl 0x00)(ty   0)(scl   6) (nx 0) 0x00001af6 .L48
[242](sec  2)(fl 0x00)(ty   0)(scl   6) (nx 0) 0x00001b38 .L43
[243](sec  3)(fl 0x00)(ty   0)(scl   3) (nx 0) 0x000030e6 .LC0
[244](sec  3)(fl 0x00)(ty   0)(scl   3) (nx 0) 0x000030f5 .LC1
[245](sec  3)(fl 0x00)(ty   0)(scl   3) (nx 0) 0x00003117 .LC2
[246](sec  3)(fl 0x00)(ty   0)(scl   3) (nx 0) 0x00003123 .LC3
[247](sec  3)(fl 0x00)(ty   0)(scl   3) (nx 0) 0x0000312b .LC4
[248](sec  2)(fl 0x00)(ty   0)(scl   6) (nx 0) 0x00001c02 .L50
[249](sec  2)(fl 0x00)(ty   0)(scl   6) (nx 0) 0x00001c1c .L53
[250](sec  2)(fl 0x00)(ty   0)(scl   6) (nx 0) 0x00001c58 .L51
[251](sec  2)(fl 0x00)(ty   0)(scl   6) (nx 0) 0x00001cba .L55
[252](sec  2)(fl 0x00)(ty   0)(scl   6) (nx 0) 0x00001d04 .L54
[253](sec  2)(fl 0x00)(ty   0)(scl   6) (nx 0) 0x00001d42 .L2
[254](sec  2)(fl 0x00)(ty   0)(scl   6) (nx 0) 0x00001d82 .L3
[255](sec  2)(fl 0x00)(ty   0)(scl   6) (nx 0) 0x00001e86 .L6
[256](sec  2)(fl 0x00)(ty   0)(scl   6) (nx 0) 0x00001e16 .L7
[257](sec  2)(fl 0x00)(ty   0)(scl   6) (nx 0) 0x00001e56 .L8
[258](sec  2)(fl 0x00)(ty   0)(scl   6) (nx 0) 0x00001f0e .L5
[259](sec  2)(fl 0x00)(ty   0)(scl   6) (nx 0) 0x00001ea2 .L11
[260](sec  2)(fl 0x00)(ty   0)(scl   6) (nx 0) 0x00001ee2 .L12
[261](sec  2)(fl 0x00)(ty   0)(scl   3) (nx 1) 0x00001730 .text
AUX scnlen 0x7f2 nreloc 92 nlnno 0
[263](sec  5)(fl 0x00)(ty   0)(scl   3) (nx 1) 0x00ffef10 .data
AUX scnlen 0x0 nreloc 0 nlnno 0
[265](sec  6)(fl 0x00)(ty   0)(scl   3) (nx 1) 0x00ffef72 .bss
AUX scnlen 0x0 nreloc 0 nlnno 0
[267](sec  3)(fl 0x00)(ty   0)(scl   3) (nx 1) 0x00002f18 .rodata
AUX scnlen 0x218 nreloc 0 nlnno 0
[269](sec  2)(fl 0x00)(ty   0)(scl   3) (nx 0) 0x00001f1a h8crt0.o
[270](sec -2)(fl 0x00)(ty   0)(scl 103) (nx 1) 0x0000011b fake
File 
[272](sec  2)(fl 0x00)(ty   0)(scl   6) (nx 0) 0x00001f32 data_init_loop
[273](sec  2)(fl 0x00)(ty   0)(scl   6) (nx 0) 0x00001f3e fin_data_init
[274](sec  2)(fl 0x00)(ty   0)(scl   6) (nx 0) 0x00001f4c bss_init_loop
[275](sec  2)(fl 0x00)(ty   0)(scl   6) (nx 0) 0x00001f56 fin_bss_init
[276](sec  2)(fl 0x00)(ty   0)(scl   3) (nx 1) 0x00001f1a .text
AUX scnlen 0x44 nreloc 12 nlnno 0
[278](sec  5)(fl 0x00)(ty   0)(scl   3) (nx 1) 0x00ffef10 .data
AUX scnlen 0x0 nreloc 0 nlnno 0
[280](sec  6)(fl 0x00)(ty   0)(scl   3) (nx 1) 0x00ffef72 .bss
AUX scnlen 0x0 nreloc 0 nlnno 0
[282](sec  2)(fl 0x00)(ty   0)(scl   3) (nx 0) 0x00001f5e _si_to_sf.o
[283](sec -2)(fl 0x00)(ty   0)(scl 103) (nx 1) 0x0000012a fp-bit.c
File 
[285](sec  2)(fl 0x00)(ty   0)(scl   6) (nx 0) 0x00001f88 .L3
[286](sec  2)(fl 0x00)(ty   0)(scl   6) (nx 0) 0x00001fd8 .L4
[287](sec  2)(fl 0x00)(ty   0)(scl   6) (nx 0) 0x00001fa6 .L5
[288](sec  2)(fl 0x00)(ty   0)(scl   6) (nx 0) 0x00001fa4 .L6
[289](sec  2)(fl 0x00)(ty   0)(scl   6) (nx 0) 0x00001fe2 .L1
[290](sec  2)(fl 0x00)(ty   0)(scl   6) (nx 0) 0x00001fbe .L11
[291](sec  2)(fl 0x00)(ty   0)(scl   3) (nx 1) 0x00001f5e .text
AUX scnlen 0x8e nreloc 8 nlnno 0
[293](sec  5)(fl 0x00)(ty   0)(scl   3) (nx 1) 0x00ffef10 .data
AUX scnlen 0x0 nreloc 0 nlnno 0
[295](sec  6)(fl 0x00)(ty   0)(scl   3) (nx 1) 0x00ffef72 .bss
AUX scnlen 0x0 nreloc 0 nlnno 0
[297](sec  2)(fl 0x00)(ty   0)(scl   3) (nx 0) 0x00001fec _addsub_sf.o
[298](sec -2)(fl 0x00)(ty   0)(scl 103) (nx 1) 0x00000151 fp-bit.c
File 
[300](sec  2)(fl 0x00)(ty   0)(scl   6) (nx 0) 0x00001fec __fpadd_parts
[301](sec  2)(fl 0x00)(ty   0)(scl   6) (nx 0) 0x0000200e .L4
[302](sec  2)(fl 0x00)(ty   0)(scl   6) (nx 0) 0x0000209c .L21
[303](sec  2)(fl 0x00)(ty   0)(scl   6) (nx 0) 0x0000201e .L7
[304](sec  2)(fl 0x00)(ty   0)(scl   6) (nx 0) 0x000020ae .L61
[305](sec  2)(fl 0x00)(ty   0)(scl   6) (nx 0) 0x0000202c .L10
[306](sec  2)(fl 0x00)(ty   0)(scl   6) (nx 0) 0x00002052 .L8
[307](sec  2)(fl 0x00)(ty   0)(scl   6) (nx 0) 0x00002038 .L13
[308](sec  2)(fl 0x00)(ty   0)(scl   6) (nx 0) 0x00002242 .L1
[309](sec  2)(fl 0x00)(ty   0)(scl   6) (nx 0) 0x0000205a .L17
[310](sec  2)(fl 0x00)(ty   0)(scl   6) (nx 0) 0x00002066 .L20
[311](sec  2)(fl 0x00)(ty   0)(scl   6) (nx 0) 0x000020a2 .L18
[312](sec  2)(fl 0x00)(ty   0)(scl   6) (nx 0) 0x00002072 .L23
[313](sec  2)(fl 0x00)(ty   0)(scl   6) (nx 0) 0x00002240 .L50
[314](sec  2)(fl 0x00)(ty   0)(scl   6) (nx 0) 0x000020aa .L26
[315](sec  2)(fl 0x00)(ty   0)(scl   6) (nx 0) 0x000020b4 .L24
[316](sec  2)(fl 0x00)(ty   0)(scl   6) (nx 0) 0x000020e6 .L27
[317](sec  2)(fl 0x00)(ty   0)(scl   6) (nx 0) 0x0000215c .L28
[318](sec  2)(fl 0x00)(ty   0)(scl   6) (nx 0) 0x0000212a .L52
[319](sec  2)(fl 0x00)(ty   0)(scl   6) (nx 0) 0x000020fc .L32
[320](sec  2)(fl 0x00)(ty   0)(scl   6) (nx 0) 0x0000217a .L37
[321](sec  2)(fl 0x00)(ty   0)(scl   6) (nx 0) 0x00002136 .L36
[322](sec  2)(fl 0x00)(ty   0)(scl   6) (nx 0) 0x0000216e .L38
[323](sec  2)(fl 0x00)(ty   0)(scl   6) (nx 0) 0x00002200 .L40
[324](sec  2)(fl 0x00)(ty   0)(scl   6) (nx 0) 0x00002198 .L41
[325](sec  2)(fl 0x00)(ty   0)(scl   6) (nx 0) 0x000021a4 .L59
[326](sec  2)(fl 0x00)(ty   0)(scl   6) (nx 0) 0x000021b6 .L43
[327](sec  2)(fl 0x00)(ty   0)(scl   6) (nx 0) 0x000021c2 .L60
[328](sec  2)(fl 0x00)(ty   0)(scl   6) (nx 0) 0x0000221e .L49
[329](sec  2)(fl 0x00)(ty   0)(scl   6) (nx 0) 0x000021e0 .L48
[330](sec  2)(fl 0x00)(ty   0)(scl   3) (nx 1) 0x00001fec .text
AUX scnlen 0x358 nreloc 48 nlnno 0
[332](sec  5)(fl 0x00)(ty   0)(scl   3) (nx 1) 0x00ffef10 .data
AUX scnlen 0x0 nreloc 0 nlnno 0
[334](sec  6)(fl 0x00)(ty   0)(scl   3) (nx 1) 0x00ffef72 .bss
AUX scnlen 0x0 nreloc 0 nlnno 0
[336](sec  2)(fl 0x00)(ty   0)(scl   3) (nx 0) 0x00002344 _div_sf.o
[337](sec -2)(fl 0x00)(ty   0)(scl 103) (nx 1) 0x0000016c fp-bit.c
File 
[339](sec  2)(fl 0x00)(ty   0)(scl   6) (nx 0) 0x00002398 .L4
[340](sec  2)(fl 0x00)(ty   0)(scl   6) (nx 0) 0x0000247c .L36
[341](sec  2)(fl 0x00)(ty   0)(scl   6) (nx 0) 0x000023a8 .L8
[342](sec  2)(fl 0x00)(ty   0)(scl   6) (nx 0) 0x000023b2 .L6
[343](sec  2)(fl 0x00)(ty   0)(scl   6) (nx 0) 0x0000247e .L5
[344](sec  2)(fl 0x00)(ty   0)(scl   6) (nx 0) 0x000023c8 .L12
[345](sec  2)(fl 0x00)(ty   0)(scl   6) (nx 0) 0x000023d8 .L10
[346](sec  2)(fl 0x00)(ty   0)(scl   6) (nx 0) 0x000023d4 .L14
[347](sec  2)(fl 0x00)(ty   0)(scl   6) (nx 0) 0x000023e8 .L9
[348](sec  2)(fl 0x00)(ty   0)(scl   6) (nx 0) 0x000023f0 .L19
[349](sec  2)(fl 0x00)(ty   0)(scl   6) (nx 0) 0x00002402 .L17
[350](sec  2)(fl 0x00)(ty   0)(scl   6) (nx 0) 0x0000240a .L22
[351](sec  2)(fl 0x00)(ty   0)(scl   6) (nx 0) 0x00002414 .L20
[352](sec  2)(fl 0x00)(ty   0)(scl   6) (nx 0) 0x0000243c .L23
[353](sec  2)(fl 0x00)(ty   0)(scl   6) (nx 0) 0x00002444 .L28
[354](sec  2)(fl 0x00)(ty   0)(scl   6) (nx 0) 0x0000244e .L27
[355](sec  2)(fl 0x00)(ty   0)(scl   6) (nx 0) 0x00002476 .L29
[356](sec  2)(fl 0x00)(ty   0)(scl   6) (nx 0) 0x00002470 .L35
[357](sec  2)(fl 0x00)(ty   0)(scl   3) (nx 1) 0x00002344 .text
AUX scnlen 0x152 nreloc 27 nlnno 0
[359](sec  5)(fl 0x00)(ty   0)(scl   3) (nx 1) 0x00ffef10 .data
AUX scnlen 0x0 nreloc 0 nlnno 0
[361](sec  6)(fl 0x00)(ty   0)(scl   3) (nx 1) 0x00ffef72 .bss
AUX scnlen 0x0 nreloc 0 nlnno 0
[363](sec  2)(fl 0x00)(ty   0)(scl   3) (nx 0) 0x00002496 _mul_sf.o
[364](sec -2)(fl 0x00)(ty   0)(scl 103) (nx 1) 0x00000194 fp-bit.c
File 
[366](sec  2)(fl 0x00)(ty   0)(scl   6) (nx 0) 0x000024f4 .L4
[367](sec  2)(fl 0x00)(ty   0)(scl   6) (nx 0) 0x00002550 .L68
[368](sec  2)(fl 0x00)(ty   0)(scl   6) (nx 0) 0x00002504 .L9
[369](sec  2)(fl 0x00)(ty   0)(scl   6) (nx 0) 0x00002576 .L70
[370](sec  2)(fl 0x00)(ty   0)(scl   6) (nx 0) 0x00002510 .L13
[371](sec  2)(fl 0x00)(ty   0)(scl   6) (nx 0) 0x00002522 .L11
[372](sec  2)(fl 0x00)(ty   0)(scl   6) (nx 0) 0x0000251c .L16
[373](sec  2)(fl 0x00)(ty   0)(scl   6) (nx 0) 0x0000253a .L66
[374](sec  2)(fl 0x00)(ty   0)(scl   6) (nx 0) 0x0000252a .L21
[375](sec  2)(fl 0x00)(ty   0)(scl   6) (nx 0) 0x00002544 .L19
[376](sec  2)(fl 0x00)(ty   0)(scl   6) (nx 0) 0x00002536 .L24
[377](sec  2)(fl 0x00)(ty   0)(scl   6) (nx 0) 0x00002720 .L6
[378](sec  2)(fl 0x00)(ty   0)(scl   6) (nx 0) 0x0000254c .L29
[379](sec  2)(fl 0x00)(ty   0)(scl   6) (nx 0) 0x0000256a .L27
[380](sec  2)(fl 0x00)(ty   0)(scl   6) (nx 0) 0x00002560 .L30
[381](sec  2)(fl 0x00)(ty   0)(scl   6) (nx 0) 0x00002572 .L33
[382](sec  2)(fl 0x00)(ty   0)(scl   6) (nx 0) 0x00002594 .L31
[383](sec  2)(fl 0x00)(ty   0)(scl   6) (nx 0) 0x00002586 .L34
[384](sec  2)(fl 0x00)(ty   0)(scl   6) (nx 0) 0x0000271e .L65
[385](sec  2)(fl 0x00)(ty   0)(scl   6) (nx 0) 0x000025ac .L42
[386](sec  2)(fl 0x00)(ty   0)(scl   6) (nx 0) 0x000025f2 .L39
[387](sec  2)(fl 0x00)(ty   0)(scl   6) (nx 0) 0x000025d6 .L40
[388](sec  2)(fl 0x00)(ty   0)(scl   6) (nx 0) 0x0000260e .L41
[389](sec  2)(fl 0x00)(ty   0)(scl   6) (nx 0) 0x00002638 .L43
[390](sec  2)(fl 0x00)(ty   0)(scl   6) (nx 0) 0x0000267e .L61
[391](sec  2)(fl 0x00)(ty   0)(scl   6) (nx 0) 0x00002670 .L47
[392](sec  2)(fl 0x00)(ty   0)(scl   6) (nx 0) 0x000026d0 .L63
[393](sec  2)(fl 0x00)(ty   0)(scl   6) (nx 0) 0x0000268c .L53
[394](sec  2)(fl 0x00)(ty   0)(scl   6) (nx 0) 0x000026b4 .L52
[395](sec  2)(fl 0x00)(ty   0)(scl   6) (nx 0) 0x00002706 .L54
[396](sec  2)(fl 0x00)(ty   0)(scl   6) (nx 0) 0x000026f4 .L64
[397](sec  2)(fl 0x00)(ty   0)(scl   3) (nx 1) 0x00002496 .text
AUX scnlen 0x2a2 nreloc 39 nlnno 0
[399](sec  5)(fl 0x00)(ty   0)(scl   3) (nx 1) 0x00ffef10 .data
AUX scnlen 0x0 nreloc 0 nlnno 0
[401](sec  6)(fl 0x00)(ty   0)(scl   3) (nx 1) 0x00ffef72 .bss
AUX scnlen 0x0 nreloc 0 nlnno 0
[403](sec  2)(fl 0x00)(ty   0)(scl   3) (nx 0) 0x00002738 _fixunssfsi.o
[404](sec -2)(fl 0x00)(ty   0)(scl 103) (nx 1) 0x0000019f libgcc2.c
File 
[406](sec  2)(fl 0x00)(ty   0)(scl   6) (nx 0) 0x00002768 .L2
[407](sec  2)(fl 0x00)(ty   0)(scl   6) (nx 0) 0x0000276e .L1
[408](sec  2)(fl 0x00)(ty   0)(scl   3) (nx 1) 0x00002738 .text
AUX scnlen 0x40 nreloc 6 nlnno 0
[410](sec  5)(fl 0x00)(ty   0)(scl   3) (nx 1) 0x00ffef10 .data
AUX scnlen 0x0 nreloc 0 nlnno 0
[412](sec  6)(fl 0x00)(ty   0)(scl   3) (nx 1) 0x00ffef72 .bss
AUX scnlen 0x0 nreloc 0 nlnno 0
[414](sec  2)(fl 0x00)(ty   0)(scl   3) (nx 0) 0x00002778 _divsi3.o
[415](sec -2)(fl 0x00)(ty   0)(scl 103) (nx 1) 0x000001a1 /home/kpit/fsfsrc/gcc-3.3-20031215/gcc/config/h8300/lib1funcs.asm
File 
[417](sec -2)(fl 0x00)(ty   0)(scl 103) (nx 1) 0x000001a3 <command line>
File 
[419](sec -2)(fl 0x00)(ty   0)(scl 103) (nx 1) 0x000001a5 <built-in>
File 
[421](sec -2)(fl 0x00)(ty   0)(scl 103) (nx 1) 0x000001ba /home/kpit/fsfsrc/gcc-3.3-20031215/gcc/config/h8300/lib1funcs.asm
File 
[423](sec  2)(fl 0x00)(ty   0)(scl   6) (nx 0) 0x00002778 divnorm
[424](sec  2)(fl 0x00)(ty   0)(scl   6) (nx 0) 0x00002782 postive
[425](sec  2)(fl 0x00)(ty   0)(scl   6) (nx 0) 0x0000278a postive2
[426](sec  2)(fl 0x00)(ty   0)(scl   6) (nx 0) 0x0000278c modnorm
[427](sec  2)(fl 0x00)(ty   0)(scl   6) (nx 0) 0x00002796 mpostive
[428](sec  2)(fl 0x00)(ty   0)(scl   6) (nx 0) 0x0000279c mpostive2
[429](sec  2)(fl 0x00)(ty   0)(scl   6) (nx 0) 0x000027fc divmodsi4
[430](sec  2)(fl 0x00)(ty   0)(scl   6) (nx 0) 0x000027e8 exitdiv
[431](sec  2)(fl 0x00)(ty   0)(scl   6) (nx 0) 0x000027f6 reti
[432](sec  2)(fl 0x00)(ty   0)(scl   6) (nx 0) 0x00002814 DenHighZero
[433](sec  2)(fl 0x00)(ty   0)(scl   6) (nx 0) 0x00002824 nextbit
[434](sec  2)(fl 0x00)(ty   0)(scl   6) (nx 0) 0x00002834 setone
[435](sec  2)(fl 0x00)(ty   0)(scl   3) (nx 1) 0x00002778 .text
AUX scnlen 0xc8 nreloc 18 nlnno 9
[437](sec  5)(fl 0x00)(ty   0)(scl   3) (nx 1) 0x00ffef10 .data
AUX scnlen 0x0 nreloc 0 nlnno 0
[439](sec  6)(fl 0x00)(ty   0)(scl   3) (nx 1) 0x00ffef72 .bss
AUX scnlen 0x0 nreloc 0 nlnno 0
[441](sec  2)(fl 0x00)(ty   0)(scl   3) (nx 0) 0x0000283c _mulsi3.o
[442](sec -2)(fl 0x00)(ty   0)(scl 103) (nx 1) 0x000001bc /home/kpit/fsfsrc/gcc-3.3-20031215/gcc/config/h8300/lib1funcs.asm
File 
[444](sec -2)(fl 0x00)(ty   0)(scl 103) (nx 1) 0x000001be <command line>
File 
[446](sec -2)(fl 0x00)(ty   0)(scl 103) (nx 1) 0x000001c0 <built-in>
File 
[448](sec -2)(fl 0x00)(ty   0)(scl 103) (nx 1) 0x000001c9 /home/kpit/fsfsrc/gcc-3.3-20031215/gcc/config/h8300/lib1funcs.asm
File 
[450](sec  2)(fl 0x00)(ty   0)(scl   3) (nx 1) 0x0000283c .text
AUX scnlen 0x18 nreloc 2 nlnno 7
[452](sec  5)(fl 0x00)(ty   0)(scl   3) (nx 1) 0x00ffef10 .data
AUX scnlen 0x0 nreloc 0 nlnno 0
[454](sec  6)(fl 0x00)(ty   0)(scl   3) (nx 1) 0x00ffef72 .bss
AUX scnlen 0x0 nreloc 0 nlnno 0
[456](sec  2)(fl 0x00)(ty   0)(scl   3) (nx 0) 0x00002854 _pack_sf.o
[457](sec -2)(fl 0x00)(ty   0)(scl 103) (nx 1) 0x000001eb fp-bit.c
File 
[459](sec  2)(fl 0x00)(ty   0)(scl   6) (nx 0) 0x0000287e .L6
[460](sec  2)(fl 0x00)(ty   0)(scl   6) (nx 0) 0x0000288e .L4
[461](sec  2)(fl 0x00)(ty   0)(scl   6) (nx 0) 0x00002986 .L3
[462](sec  2)(fl 0x00)(ty   0)(scl   6) (nx 0) 0x00002896 .L11
[463](sec  2)(fl 0x00)(ty   0)(scl   6) (nx 0) 0x00002944 .L37
[464](sec  2)(fl 0x00)(ty   0)(scl   6) (nx 0) 0x000028a4 .L15
[465](sec  2)(fl 0x00)(ty   0)(scl   6) (nx 0) 0x00002948 .L36
[466](sec  2)(fl 0x00)(ty   0)(scl   6) (nx 0) 0x0000293e .L19
[467](sec  2)(fl 0x00)(ty   0)(scl   6) (nx 0) 0x000028cc .L20
[468](sec  2)(fl 0x00)(ty   0)(scl   6) (nx 0) 0x00002904 .L21
[469](sec  2)(fl 0x00)(ty   0)(scl   6) (nx 0) 0x000028e0 .Lle1
[470](sec  2)(fl 0x00)(ty   0)(scl   6) (nx 0) 0x000028da .Llt1
[471](sec  2)(fl 0x00)(ty   0)(scl   6) (nx 0) 0x000028f0 .L22
[472](sec  2)(fl 0x00)(ty   0)(scl   6) (nx 0) 0x000028fa .Lle2
[473](sec  2)(fl 0x00)(ty   0)(scl   6) (nx 0) 0x000028f4 .Llt2
[474](sec  2)(fl 0x00)(ty   0)(scl   6) (nx 0) 0x00002922 .L23
[475](sec  2)(fl 0x00)(ty   0)(scl   6) (nx 0) 0x00002928 .L25
[476](sec  2)(fl 0x00)(ty   0)(scl   6) (nx 0) 0x00002934 .L26
[477](sec  2)(fl 0x00)(ty   0)(scl   6) (nx 0) 0x00002936 .Llt3
[478](sec  2)(fl 0x00)(ty   0)(scl   6) (nx 0) 0x0000294c .L28
[479](sec  2)(fl 0x00)(ty   0)(scl   6) (nx 0) 0x00002970 .L31
[480](sec  2)(fl 0x00)(ty   0)(scl   6) (nx 0) 0x00002976 .L33
[481](sec  2)(fl 0x00)(ty   0)(scl   6) (nx 0) 0x0000297e .L30
[482](sec  2)(fl 0x00)(ty   0)(scl   6) (nx 0) 0x00002980 .Llt5
[483](sec  2)(fl 0x00)(ty   0)(scl   6) (nx 0) 0x00002992 .Llt6
[484](sec  2)(fl 0x00)(ty   0)(scl   3) (nx 1) 0x00002854 .text
AUX scnlen 0x166 nreloc 30 nlnno 0
[486](sec  5)(fl 0x00)(ty   0)(scl   3) (nx 1) 0x00ffef10 .data
AUX scnlen 0x0 nreloc 0 nlnno 0
[488](sec  6)(fl 0x00)(ty   0)(scl   3) (nx 1) 0x00ffef72 .bss
AUX scnlen 0x0 nreloc 0 nlnno 0
[490](sec  2)(fl 0x00)(ty   0)(scl   3) (nx 0) 0x000029ba _thenan_sf.o
[491](sec -2)(fl 0x00)(ty   0)(scl 103) (nx 1) 0x000001f6 fp-bit.c
File 
[493](sec  2)(fl 0x00)(ty   0)(scl   3) (nx 1) 0x000029ba .text
AUX scnlen 0x0 nreloc 0 nlnno 0
[495](sec  5)(fl 0x00)(ty   0)(scl   3) (nx 1) 0x00ffef10 .data
AUX scnlen 0x0 nreloc 0 nlnno 0
[497](sec  6)(fl 0x00)(ty   0)(scl   3) (nx 1) 0x00ffef72 .bss
AUX scnlen 0x0 nreloc 0 nlnno 0
[499](sec  3)(fl 0x00)(ty   0)(scl   3) (nx 1) 0x00003130 .rodata
AUX scnlen 0x8 nreloc 0 nlnno 0
[501](sec  2)(fl 0x00)(ty   0)(scl   3) (nx 0) 0x000029ba _unpack_sf.o
[502](sec -2)(fl 0x00)(ty   0)(scl 103) (nx 1) 0x0000020b fp-bit.c
File 
[504](sec  2)(fl 0x00)(ty   0)(scl   6) (nx 0) 0x000029d4 .Llt1
[505](sec  2)(fl 0x00)(ty   0)(scl   6) (nx 0) 0x00002a28 .L2
[506](sec  2)(fl 0x00)(ty   0)(scl   6) (nx 0) 0x000029f8 .L3
[507](sec  2)(fl 0x00)(ty   0)(scl   6) (nx 0) 0x00002a34 .L20
[508](sec  2)(fl 0x00)(ty   0)(scl   6) (nx 0) 0x00002a02 .Llt3
[509](sec  2)(fl 0x00)(ty   0)(scl   6) (nx 0) 0x00002a64 .L19
[510](sec  2)(fl 0x00)(ty   0)(scl   6) (nx 0) 0x00002a16 .L8
[511](sec  2)(fl 0x00)(ty   0)(scl   6) (nx 0) 0x00002a4c .L10
[512](sec  2)(fl 0x00)(ty   0)(scl   6) (nx 0) 0x00002a38 .L11
[513](sec  2)(fl 0x00)(ty   0)(scl   6) (nx 0) 0x00002a6a .L1
[514](sec  2)(fl 0x00)(ty   0)(scl   6) (nx 0) 0x00002a48 .L13
[515](sec  2)(fl 0x00)(ty   0)(scl   6) (nx 0) 0x00002a5a .Llt5
[516](sec  2)(fl 0x00)(ty   0)(scl   3) (nx 1) 0x000029ba .text
AUX scnlen 0xba nreloc 15 nlnno 0
[518](sec  5)(fl 0x00)(ty   0)(scl   3) (nx 1) 0x00ffef10 .data
AUX scnlen 0x0 nreloc 0 nlnno 0
[520](sec  6)(fl 0x00)(ty   0)(scl   3) (nx 1) 0x00ffef72 .bss
AUX scnlen 0x0 nreloc 0 nlnno 0
[522](sec  2)(fl 0x00)(ty   0)(scl   3) (nx 0) 0x00002a74 _ge_sf.o
[523](sec -2)(fl 0x00)(ty   0)(scl 103) (nx 1) 0x00000219 fp-bit.c
File 
[525](sec  2)(fl 0x00)(ty   0)(scl   6) (nx 0) 0x00002ac8 .L5
[526](sec  2)(fl 0x00)(ty   0)(scl   6) (nx 0) 0x00002ada .L3
[527](sec  2)(fl 0x00)(ty   0)(scl   6) (nx 0) 0x00002ad6 .L7
[528](sec  2)(fl 0x00)(ty   0)(scl   6) (nx 0) 0x00002ae0 .L2
[529](sec  2)(fl 0x00)(ty   0)(scl   6) (nx 0) 0x00002aea .L1
[530](sec  2)(fl 0x00)(ty   0)(scl   3) (nx 1) 0x00002a74 .text
AUX scnlen 0x8a nreloc 8 nlnno 0
[532](sec  5)(fl 0x00)(ty   0)(scl   3) (nx 1) 0x00ffef10 .data
AUX scnlen 0x0 nreloc 0 nlnno 0
[534](sec  6)(fl 0x00)(ty   0)(scl   3) (nx 1) 0x00ffef72 .bss
AUX scnlen 0x0 nreloc 0 nlnno 0
[536](sec  2)(fl 0x00)(ty   0)(scl   3) (nx 0) 0x00002afe _sf_to_si.o
[537](sec -2)(fl 0x00)(ty   0)(scl 103) (nx 1) 0x0000022d fp-bit.c
File 
[539](sec  2)(fl 0x00)(ty   0)(scl   6) (nx 0) 0x00002b32 .L4
[540](sec  2)(fl 0x00)(ty   0)(scl   6) (nx 0) 0x00002b54 .L19
[541](sec  2)(fl 0x00)(ty   0)(scl   6) (nx 0) 0x00002b3e .L7
[542](sec  2)(fl 0x00)(ty   0)(scl   6) (nx 0) 0x00002b4a .L10
[543](sec  2)(fl 0x00)(ty   0)(scl   6) (nx 0) 0x00002b5e .L20
[544](sec  2)(fl 0x00)(ty   0)(scl   6) (nx 0) 0x00002b58 .L13
[545](sec  2)(fl 0x00)(ty   0)(scl   6) (nx 0) 0x00002b94 .L1
[546](sec  2)(fl 0x00)(ty   0)(scl   6) (nx 0) 0x00002b74 .L14
[547](sec  2)(fl 0x00)(ty   0)(scl   6) (nx 0) 0x00002b6c .L15
[548](sec  2)(fl 0x00)(ty   0)(scl   6) (nx 0) 0x00002b8c .Lle1
[549](sec  2)(fl 0x00)(ty   0)(scl   6) (nx 0) 0x00002b86 .Llt1
[550](sec  2)(fl 0x00)(ty   0)(scl   3) (nx 1) 0x00002afe .text
AUX scnlen 0xa6 nreloc 16 nlnno 0
[552](sec  5)(fl 0x00)(ty   0)(scl   3) (nx 1) 0x00ffef10 .data
AUX scnlen 0x0 nreloc 0 nlnno 0
[554](sec  6)(fl 0x00)(ty   0)(scl   3) (nx 1) 0x00ffef72 .bss
AUX scnlen 0x0 nreloc 0 nlnno 0
[556](sec  2)(fl 0x00)(ty   0)(scl   3) (nx 0) 0x00002ba4 _fpcmp_parts_sf.o
[557](sec -2)(fl 0x00)(ty   0)(scl 103) (nx 1) 0x0000024d fp-bit.c
File 
[559](sec  2)(fl 0x00)(ty   0)(scl   6) (nx 0) 0x00002bba .L5
[560](sec  2)(fl 0x00)(ty   0)(scl   6) (nx 0) 0x00002c8a .L53
[561](sec  2)(fl 0x00)(ty   0)(scl   6) (nx 0) 0x00002bca .L7
[562](sec  2)(fl 0x00)(ty   0)(scl   6) (nx 0) 0x00002bd8 .L10
[563](sec  2)(fl 0x00)(ty   0)(scl   6) (nx 0) 0x00002bfa .L8
[564](sec  2)(fl 0x00)(ty   0)(scl   6) (nx 0) 0x00002be4 .L12
[565](sec  2)(fl 0x00)(ty   0)(scl   6) (nx 0) 0x00002c98 .L1
[566](sec  2)(fl 0x00)(ty   0)(scl   6) (nx 0) 0x00002c02 .L15
[567](sec  2)(fl 0x00)(ty   0)(scl   6) (nx 0) 0x00002c4a .L56
[568](sec  2)(fl 0x00)(ty   0)(scl   6) (nx 0) 0x00002c0e .L20
[569](sec  2)(fl 0x00)(ty   0)(scl   6) (nx 0) 0x00002c36 .L55
[570](sec  2)(fl 0x00)(ty   0)(scl   6) (nx 0) 0x00002c1a .L25
[571](sec  2)(fl 0x00)(ty   0)(scl   6) (nx 0) 0x00002c2a .L23
[572](sec  2)(fl 0x00)(ty   0)(scl   6) (nx 0) 0x00002c26 .L27
[573](sec  2)(fl 0x00)(ty   0)(scl   6) (nx 0) 0x00002c96 .L50
[574](sec  2)(fl 0x00)(ty   0)(scl   6) (nx 0) 0x00002c32 .L30
[575](sec  2)(fl 0x00)(ty   0)(scl   6) (nx 0) 0x00002c3e .L28
[576](sec  2)(fl 0x00)(ty   0)(scl   6) (nx 0) 0x00002c90 .L51
[577](sec  2)(fl 0x00)(ty   0)(scl   6) (nx 0) 0x00002c46 .L35
[578](sec  2)(fl 0x00)(ty   0)(scl   6) (nx 0) 0x00002c52 .L33
[579](sec  2)(fl 0x00)(ty   0)(scl   6) (nx 0) 0x00002c7c .L58
[580](sec  2)(fl 0x00)(ty   0)(scl   6) (nx 0) 0x00002c86 .L54
[581](sec  2)(fl 0x00)(ty   0)(scl   6) (nx 0) 0x00002c82 .L47
[582](sec  2)(fl 0x00)(ty   0)(scl   3) (nx 1) 0x00002ba4 .text
AUX scnlen 0xfe nreloc 35 nlnno 0
[584](sec  5)(fl 0x00)(ty   0)(scl   3) (nx 1) 0x00ffef10 .data
AUX scnlen 0x0 nreloc 0 nlnno 0
[586](sec  6)(fl 0x00)(ty   0)(scl   3) (nx 1) 0x00ffef72 .bss
AUX scnlen 0x0 nreloc 0 nlnno 0
[588](sec  2)(fl 0x00)(ty   0)(scl   3) (nx 0) 0x00002ca2 strlen.o
[589](sec -2)(fl 0x00)(ty   0)(scl 103) (nx 1) 0x0000025a strlen.c
File 
[591](sec  2)(fl 0x00)(ty   0)(scl   6) (nx 0) 0x00002cea .L2
[592](sec  2)(fl 0x00)(ty   0)(scl   6) (nx 0) 0x00002cce .L6
[593](sec  2)(fl 0x00)(ty   0)(scl   6) (nx 0) 0x00002cf4 .L14
[594](sec  2)(fl 0x00)(ty   0)(scl   6) (nx 0) 0x00002cee .L10
[595](sec  2)(fl 0x00)(ty   0)(scl   3) (nx 1) 0x00002ca2 .text
AUX scnlen 0x5a nreloc 5 nlnno 0
[597](sec  5)(fl 0x00)(ty   0)(scl   3) (nx 1) 0x00ffef10 .data
AUX scnlen 0x0 nreloc 0 nlnno 0
[599](sec  6)(fl 0x00)(ty   0)(scl   3) (nx 1) 0x00ffef72 .bss
AUX scnlen 0x0 nreloc 0 nlnno 0
[601](sec  2)(fl 0x00)(ty   0)(scl   3) (nx 0) 0x00002cfc strcmp.o
[602](sec -2)(fl 0x00)(ty   0)(scl 103) (nx 1) 0x0000025c /home/kpit/fsfsrc/newlib-20031216/newlib/libc/machine/h8300/strcmp.S
File 
[604](sec -2)(fl 0x00)(ty   0)(scl 103) (nx 1) 0x0000025e /home/kpit/fsfsrc/newlib-20031216/newlib/libc/machine/h8300/strcmp.S
File 
[606](sec -2)(fl 0x00)(ty   0)(scl 103) (nx 1) 0x00000260 /home/kpit/fsfsrc/newlib-20031216/newlib/libc/machine/h8300/setarch.h
File 
[608](sec -2)(fl 0x00)(ty   0)(scl 103) (nx 1) 0x00000262 /home/kpit/fsfsrc/newlib-20031216/newlib/libc/machine/h8300/strcmp.S
File 
[610](sec -2)(fl 0x00)(ty   0)(scl 103) (nx 1) 0x00000264 /home/kpit/fsfsrc/newlib-20031216/newlib/libc/machine/h8300/defines.h
File 
[612](sec -2)(fl 0x00)(ty   0)(scl 103) (nx 1) 0x00000266 <command line>
File 
[614](sec -2)(fl 0x00)(ty   0)(scl 103) (nx 1) 0x00000268 <built-in>
File 
[616](sec -2)(fl 0x00)(ty   0)(scl 103) (nx 1) 0x00000000 /home/kpit/fsfsrc/newlib-20031216/newlib/libc/machine/h8300/strcmp.S
File 
[618](sec  2)(fl 0x00)(ty   0)(scl   6) (nx 0) 0x00002d00 .L5
[619](sec  2)(fl 0x00)(ty   0)(scl   6) (nx 0) 0x00002d0c .L3
[620](sec  2)(fl 0x00)(ty   0)(scl   3) (nx 1) 0x00002cfc .text
AUX scnlen 0x1e nreloc 2 nlnno 9
[622](sec  5)(fl 0x00)(ty   0)(scl   3) (nx 1) 0x00ffef10 .data
AUX scnlen 0x0 nreloc 0 nlnno 0
[624](sec  6)(fl 0x00)(ty   0)(scl   3) (nx 1) 0x00ffef72 .bss
AUX scnlen 0x0 nreloc 0 nlnno 0
[626](sec  2)(fl 0x00)(ty   0)(scl   2) (nx 0) 0x00000630 _int_imia1
[627](sec  2)(fl 0x00)(ty   0)(scl   2) (nx 0) 0x00002afe ___fixsfsi
[628](sec  2)(fl 0x00)(ty   0)(scl   2) (nx 0) 0x00000164 _post
[629](sec  2)(fl 0x00)(ty   0)(scl   2) (nx 0) 0x000022c8 ___subsf3
[630](sec  2)(fl 0x00)(ty   0)(scl   2) (nx 0) 0x000002ec _irq_init
[631](sec  2)(fl 0x00)(ty   0)(scl   2) (nx 0) 0x00002cfc _strcmp
[632](sec  6)(fl 0x00)(ty   0)(scl   2) (nx 0) 0x00ffef80 _Public_Abmp_Data
[633](sec  2)(fl 0x00)(ty   0)(scl   2) (nx 0) 0x00001b6e _dumpABMP
[634](sec  2)(fl 0x00)(ty   0)(scl   2) (nx 0) 0x00001582 _cmd_sync
[635](sec  2)(fl 0x00)(ty   0)(scl   2) (nx 0) 0x00001550 _cmd_run
[636](sec  2)(fl 0x00)(ty   0)(scl   2) (nx 0) 0x0000144c _cmd_dump
[637](sec  2)(fl 0x00)(ty   0)(scl   2) (nx 0) 0x000014b2 _cmd_help
[638](sec  2)(fl 0x00)(ty   0)(scl   2) (nx 0) 0x00001082 _execute_command
[639](sec  2)(fl 0x00)(ty   0)(scl   2) (nx 0) 0x00001488 _cmd_exit
[640](sec  2)(fl 0x00)(ty   0)(scl   2) (nx 0) 0x00000c7c _int_rxi1
[641](sec  4)(fl 0x00)(ty   0)(scl   2) (nx 0) 0x00003148 __DTOR_END__
[642](sec  2)(fl 0x00)(ty   0)(scl   2) (nx 0) 0x00002ba4 ___fpcmp_parts_f
[643](sec  2)(fl 0x00)(ty   0)(scl   2) (nx 0) 0x000027c4 ___umodsi3
[644](sec  3)(fl 0x00)(ty   0)(scl   2) (nx 0) 0x00002f18 _default_x
[645](sec  2)(fl 0x00)(ty   0)(scl   2) (nx 0) 0x000017d6 _getpointABMP
[646](sec  2)(fl 0x00)(ty   0)(scl   2) (nx 0) 0x00002256 ___addsf3
[647](sec  2)(fl 0x00)(ty   0)(scl   2) (nx 0) 0x00002738 ___fixunssfsi
[648](sec  2)(fl 0x00)(ty   0)(scl   2) (nx 0) 0x00002496 ___mulsf3
[649](sec  3)(fl 0x00)(ty   0)(scl   2) (nx 0) 0x00002e46 _CommandTable
[650](sec  2)(fl 0x00)(ty   0)(scl   2) (nx 0) 0x000014d4 _cmd_read
[651](sec  2)(fl 0x00)(ty   0)(scl   2) (nx 0) 0x00000318 _int_irq2
[652](sec  6)(fl 0x00)(ty   0)(scl   2) (nx 0) 0x00fff148 _Public_Count
[653](sec  2)(fl 0x00)(ty   0)(scl   2) (nx 0) 0x000015ce _cmd_lock
[654](sec  3)(fl 0x00)(ty   0)(scl   2) (nx 0) 0x00002f1c _default_size
[655](sec  3)(fl 0x00)(ty   0)(scl   2) (nx 0) 0x00002f1e _default_data
[656](sec  6)(fl 0x00)(ty   0)(scl   2) (nx 0) 0x00fff14a _timer1_count
[657](sec  2)(fl 0x00)(ty   0)(scl   2) (nx 0) 0x00000d4a _sci1_init
[658](sec  2)(fl 0x00)(ty   0)(scl   2) (nx 0) 0x00000554 _timer1_start
[659](sec  6)(fl 0x00)(ty   0)(scl   2) (nx 0) 0x00fff181 _ebss
[660](sec  2)(fl 0x00)(ty   0)(scl   2) (nx 0) 0x000027d8 ___divsi3
[661](sec  2)(fl 0x00)(ty   0)(scl   2) (nx 0) 0x00001606 _cmd_unlock
[662](sec  2)(fl 0x00)(ty   0)(scl   2) (nx 0) 0x000004a4 _timer_init
[663](sec  3)(fl 0x00)(ty   0)(scl   2) (nx 0) 0x00002d1a _VersionString
[664](sec  6)(fl 0x00)(ty   0)(scl   2) (nx 0) 0x00fff180 _CTRL_C
[665](sec  4)(fl 0x00)(ty   0)(scl   2) (nx 0) 0x00003138 __CTOR_LIST__
[666](sec  2)(fl 0x00)(ty   0)(scl   2) (nx 0) 0x00002d1a etext
[667](sec  2)(fl 0x00)(ty   0)(scl   2) (nx 0) 0x00001730 _initABMP
[668](sec  6)(fl 0x00)(ty   0)(scl   2) (nx 0) 0x00ffef10 _bss
[669](sec  3)(fl 0x00)(ty   0)(scl   2) (nx 0) 0x00002ea6 _CommandNumber
[670](sec  2)(fl 0x00)(ty   0)(scl   2) (nx 0) 0x00001f1a _start
[671](sec  2)(fl 0x00)(ty   0)(scl   2) (nx 0) 0x00001916 _readABMP
[672](sec  2)(fl 0x00)(ty   0)(scl   2) (nx 0) 0x000004c0 _wait
[673](sec  2)(fl 0x00)(ty   0)(scl   2) (nx 0) 0x00001708 _cmd_stop
[674](sec  3)(fl 0x00)(ty   0)(scl   2) (nx 0) 0x00003130 ___thenan_sf
[675](sec  4)(fl 0x00)(ty   0)(scl   2) (nx 0) 0x00003144 ___dtors
[676](sec  6)(fl 0x00)(ty   0)(scl   2) (nx 0) 0x00fff14c _Public_Cursor_X
[677](sec  3)(fl 0x00)(ty   0)(scl   2) (nx 0) 0x00002f1a _default_y
[678](sec  2)(fl 0x00)(ty   0)(scl   2) (nx 0) 0x00000100 _io_init
[679](sec  2)(fl 0x00)(ty   0)(scl   2) (nx 0) 0x00000ff6 _sci1_sreaddword
[680](sec  2)(fl 0x00)(ty   0)(scl   2) (nx 0) 0x00002344 ___divsf3
[681](sec  6)(fl 0x00)(ty   0)(scl   2) (nx 0) 0x00fff14d _FLG_autosync
[682](sec  2)(fl 0x00)(ty   0)(scl   2) (nx 0) 0x00002a74 ___gesf2
[683](sec  6)(fl 0x00)(ty   0)(scl   2) (nx 0) 0x00fff150 _LED_Front_Lower
[684](sec  2)(fl 0x00)(ty   0)(scl   2) (nx 0) 0x00000da4 _sci1_rx
[685](sec  2)(fl 0x00)(ty   0)(scl   2) (nx 0) 0x000016ae _cmd_reverse
[686](sec  2)(fl 0x00)(ty   0)(scl   2) (nx 0) 0x00000508 _timer1_init
[687](sec  2)(fl 0x00)(ty   0)(scl   2) (nx 0) 0x000029ba ___unpack_f
[688](sec  2)(fl 0x00)(ty   0)(scl   2) (nx 0) 0x00000620 _timer1_stop
[689](sec  2)(fl 0x00)(ty   0)(scl   2) (nx 0) 0x00000e12 _sci1_tx
[690](sec  4)(fl 0x00)(ty   0)(scl   2) (nx 0) 0x00003140 __CTOR_END__
[691](sec  4)(fl 0x00)(ty   0)(scl   2) (nx 0) 0x0000313c ___ctors_end
[692](sec  2)(fl 0x00)(ty   0)(scl   2) (nx 0) 0x00000538 _timer1_interval
[693](sec  4)(fl 0x00)(ty   0)(scl   2) (nx 0) 0x00003140 __DTOR_LIST__
[694](sec  2)(fl 0x00)(ty   0)(scl   2) (nx 0) 0x0000117a _commandline_deployment
[695](sec  6)(fl 0x00)(ty   0)(scl   2) (nx 0) 0x00fff154 _Public_Scroll_Value
[696](sec  2)(fl 0x00)(ty   0)(scl   2) (nx 0) 0x0000163e _cmd_power
[697](sec  4)(fl 0x00)(ty   0)(scl   2) (nx 0) 0x0000313c ___ctors
[698](sec  6)(fl 0x00)(ty   0)(scl   2) (nx 0) 0x00fff158 _LED_Back_Upper
[699](sec  6)(fl 0x00)(ty   0)(scl   2) (nx 0) 0x00fff15c _LED_Back_Lower
[700](sec  2)(fl 0x00)(ty   0)(scl   2) (nx 0) 0x0000187e _letpointABMP
[701](sec  5)(fl 0x00)(ty   0)(scl   2) (nx 0) 0x00ffef10 _data
[702](sec  2)(fl 0x00)(ty   0)(scl   2) (nx 0) 0x00000fba _sci1_sreadword
[703](sec  2)(fl 0x00)(ty   0)(scl   2) (nx 0) 0x00001670 _cmd_ver
[704](sec  2)(fl 0x00)(ty   0)(scl   2) (nx 0) 0x00000396 _int_irq3
[705](sec  5)(fl 0x00)(ty   0)(scl   2) (nx 0) 0x00ffef10 _edata
[706](sec  6)(fl 0x00)(ty   0)(scl   2) (nx 0) 0x00fff181 _end
[707](sec  6)(fl 0x00)(ty   0)(scl   2) (nx 0) 0x00fff160 _LED_Front_Upper
[708](sec  2)(fl 0x00)(ty   0)(scl   2) (nx 0) 0x0000279e ___modsi3
[709](sec  2)(fl 0x00)(ty   0)(scl   2) (nx 0) 0x000027b2 ___udivsi3
[710](sec  2)(fl 0x00)(ty   0)(scl   2) (nx 0) 0x000006ca _sci1_printf
[711](sec  4)(fl 0x00)(ty   0)(scl   2) (nx 0) 0x00003148 _mdata
[712](sec  2)(fl 0x00)(ty   0)(scl   2) (nx 0) 0x00001c72 _printlineABMP
[713](sec  2)(fl 0x00)(ty   0)(scl   2) (nx 0) 0x00002854 ___pack_f
[714](sec  6)(fl 0x00)(ty   0)(scl   2) (nx 0) 0x00fff170 _Public_Abmp
[715](sec  2)(fl 0x00)(ty   0)(scl   2) (nx 0) 0x00000e38 _sci1_strtx
[716](sec  2)(fl 0x00)(ty   0)(scl   2) (nx 0) 0x00002ca2 _strlen
[717](sec  2)(fl 0x00)(ty   0)(scl   2) (nx 0) 0x00001f5e ___floatsisf
[718](sec  2)(fl 0x00)(ty   0)(scl   2) (nx 0) 0x00001f5a _exit
[719](sec  2)(fl 0x00)(ty   0)(scl   2) (nx 0) 0x00000f32 _sci1_sread
[720](sec  2)(fl 0x00)(ty   0)(scl   2) (nx 0) 0x00000e76 _sci1_strrx
[721](sec  7)(fl 0x00)(ty   0)(scl   2) (nx 0) 0x00ffff0c _stack
[722](sec  4)(fl 0x00)(ty   0)(scl   2) (nx 0) 0x00003144 ___dtors_end
[723](sec  2)(fl 0x00)(ty   0)(scl   2) (nx 0) 0x0000283c ___mulsi3
[724](sec  2)(fl 0x00)(ty   0)(scl   2) (nx 0) 0x00000414 _main
[725](sec  3)(fl 0x00)(ty   0)(scl   2) (nx 0) 0x00003138 _erodata


Disassembly of section .vectors:

00000000 <.vectors>:
   0:	00 00       	00 00             nop	
   2:	1f 1a       	1f 1a        .word	H'1f,H'1a
   4:	00 00       	00 00             nop	
   6:	1f 1a       	1f 1a        .word	H'1f,H'1a
   8:	00 00       	00 00             nop	
   a:	1f 1a       	1f 1a        .word	H'1f,H'1a
   c:	00 00       	00 00             nop	
   e:	1f 1a       	1f 1a        .word	H'1f,H'1a
  10:	00 00       	00 00             nop	
  12:	1f 1a       	1f 1a        .word	H'1f,H'1a
  14:	00 00       	00 00             nop	
  16:	1f 1a       	1f 1a        .word	H'1f,H'1a
  18:	00 00       	00 00             nop	
  1a:	1f 1a       	1f 1a        .word	H'1f,H'1a
  1c:	00 00       	00 00             nop	
  1e:	1f 1a       	1f 1a        .word	H'1f,H'1a
  20:	00 00       	00 00             nop	
  22:	1f 1a       	1f 1a        .word	H'1f,H'1a
  24:	00 00       	00 00             nop	
  26:	1f 1a       	1f 1a        .word	H'1f,H'1a
  28:	00 00       	00 00             nop	
  2a:	1f 1a       	1f 1a        .word	H'1f,H'1a
  2c:	00 00       	00 00             nop	
  2e:	1f 1a       	1f 1a        .word	H'1f,H'1a
  30:	00 00       	00 00             nop	
  32:	1f 1a       	1f 1a        .word	H'1f,H'1a
  34:	00 00       	00 00             nop	
  36:	1f 1a       	1f 1a        .word	H'1f,H'1a
  38:	00 00       	00 00             nop	
  3a:	03 18       	03 18             ldc	r0l,exr
  3c:	00 00       	00 00             nop	
  3e:	03 96       	03 96             ldmac	er6,macl
  40:	00 00       	00 00             nop	
  42:	1f 1a       	1f 1a        .word	H'1f,H'1a
  44:	00 00       	00 00             nop	
  46:	1f 1a       	1f 1a        .word	H'1f,H'1a
  48:	00 00       	00 00             nop	
  4a:	1f 1a       	1f 1a        .word	H'1f,H'1a
  4c:	00 00       	00 00             nop	
  4e:	1f 1a       	1f 1a        .word	H'1f,H'1a
  50:	00 00       	00 00             nop	
  52:	1f 1a       	1f 1a        .word	H'1f,H'1a
  54:	00 00       	00 00             nop	
  56:	1f 1a       	1f 1a        .word	H'1f,H'1a
  58:	00 00       	00 00             nop	
  5a:	1f 1a       	1f 1a        .word	H'1f,H'1a
  5c:	00 00       	00 00             nop	
  5e:	1f 1a       	1f 1a        .word	H'1f,H'1a
  60:	00 00       	00 00             nop	
  62:	1f 1a       	1f 1a        .word	H'1f,H'1a
  64:	00 00       	00 00             nop	
  66:	1f 1a       	1f 1a        .word	H'1f,H'1a
  68:	00 00       	00 00             nop	
  6a:	1f 1a       	1f 1a        .word	H'1f,H'1a
  6c:	00 00       	00 00             nop	
  6e:	1f 1a       	1f 1a        .word	H'1f,H'1a
  70:	00 00       	00 00             nop	
  72:	06 30       	06 30             andc	#0x30,ccr
  74:	00 00       	00 00             nop	
  76:	1f 1a       	1f 1a        .word	H'1f,H'1a
  78:	00 00       	00 00             nop	
  7a:	1f 1a       	1f 1a        .word	H'1f,H'1a
  7c:	00 00       	00 00             nop	
  7e:	1f 1a       	1f 1a        .word	H'1f,H'1a
  80:	00 00       	00 00             nop	
  82:	1f 1a       	1f 1a        .word	H'1f,H'1a
  84:	00 00       	00 00             nop	
  86:	1f 1a       	1f 1a        .word	H'1f,H'1a
  88:	00 00       	00 00             nop	
  8a:	1f 1a       	1f 1a        .word	H'1f,H'1a
  8c:	00 00       	00 00             nop	
  8e:	1f 1a       	1f 1a        .word	H'1f,H'1a
  90:	00 00       	00 00             nop	
  92:	1f 1a       	1f 1a        .word	H'1f,H'1a
  94:	00 00       	00 00             nop	
  96:	1f 1a       	1f 1a        .word	H'1f,H'1a
  98:	00 00       	00 00             nop	
  9a:	1f 1a       	1f 1a        .word	H'1f,H'1a
  9c:	00 00       	00 00             nop	
  9e:	1f 1a       	1f 1a        .word	H'1f,H'1a
  a0:	00 00       	00 00             nop	
  a2:	1f 1a       	1f 1a        .word	H'1f,H'1a
  a4:	00 00       	00 00             nop	
  a6:	1f 1a       	1f 1a        .word	H'1f,H'1a
  a8:	00 00       	00 00             nop	
  aa:	1f 1a       	1f 1a        .word	H'1f,H'1a
  ac:	00 00       	00 00             nop	
  ae:	1f 1a       	1f 1a        .word	H'1f,H'1a
  b0:	00 00       	00 00             nop	
  b2:	1f 1a       	1f 1a        .word	H'1f,H'1a
  b4:	00 00       	00 00             nop	
  b6:	1f 1a       	1f 1a        .word	H'1f,H'1a
  b8:	00 00       	00 00             nop	
  ba:	1f 1a       	1f 1a        .word	H'1f,H'1a
  bc:	00 00       	00 00             nop	
  be:	1f 1a       	1f 1a        .word	H'1f,H'1a
  c0:	00 00       	00 00             nop	
  c2:	1f 1a       	1f 1a        .word	H'1f,H'1a
  c4:	00 00       	00 00             nop	
  c6:	1f 1a       	1f 1a        .word	H'1f,H'1a
  c8:	00 00       	00 00             nop	
  ca:	1f 1a       	1f 1a        .word	H'1f,H'1a
  cc:	00 00       	00 00             nop	
  ce:	1f 1a       	1f 1a        .word	H'1f,H'1a
  d0:	00 00       	00 00             nop	
  d2:	1f 1a       	1f 1a        .word	H'1f,H'1a
  d4:	00 00       	00 00             nop	
  d6:	1f 1a       	1f 1a        .word	H'1f,H'1a
  d8:	00 00       	00 00             nop	
  da:	1f 1a       	1f 1a        .word	H'1f,H'1a
  dc:	00 00       	00 00             nop	
  de:	1f 1a       	1f 1a        .word	H'1f,H'1a
  e0:	00 00       	00 00             nop	
  e2:	1f 1a       	1f 1a        .word	H'1f,H'1a
  e4:	00 00       	00 00             nop	
  e6:	0c 7c       	0c 7c             mov.b	r7h,r4l
  e8:	00 00       	00 00             nop	
  ea:	1f 1a       	1f 1a        .word	H'1f,H'1a
  ec:	00 00       	00 00             nop	
  ee:	1f 1a       	1f 1a        .word	H'1f,H'1a
  f0:	00 00       	00 00             nop	
  f2:	1f 1a       	1f 1a        .word	H'1f,H'1a
Disassembly of section .text:

00000100 <_io_init>:
     100:	01 00 6d f6 	01 00 6d f6       mov.l	er6,@-er7
     104:	0f f6       	0f f6             mov.l	er7,er6
     106:	fa ff       	fa ff             mov.b	#0xff,r2l
     108:	3a c0       	3a c0             mov.b	r2l,@0xc0:8
     10a:	fa ff       	fa ff             mov.b	#0xff,r2l
     10c:	3a c1       	3a c1             mov.b	r2l,@0xc1:8
     10e:	18 aa       	18 aa             sub.b	r2l,r2l
     110:	3a d8       	3a d8             mov.b	r2l,@0xd8:8
     112:	fa ff       	fa ff             mov.b	#0xff,r2l
     114:	3a d1       	3a d1             mov.b	r2l,@0xd1:8
     116:	fa ff       	fa ff             mov.b	#0xff,r2l
     118:	3a d4       	3a d4             mov.b	r2l,@0xd4:8
     11a:	18 aa       	18 aa             sub.b	r2l,r2l
     11c:	3a c5       	3a c5             mov.b	r2l,@0xc5:8
     11e:	fa ff       	fa ff             mov.b	#0xff,r2l
     120:	3a da       	3a da             mov.b	r2l,@0xda:8
     122:	fa ff       	fa ff             mov.b	#0xff,r2l
     124:	3a c8       	3a c8             mov.b	r2l,@0xc8:8
     126:	18 aa       	18 aa             sub.b	r2l,r2l
     128:	3a db       	3a db             mov.b	r2l,@0xdb:8
     12a:	18 aa       	18 aa             sub.b	r2l,r2l
     12c:	3a cd       	3a cd             mov.b	r2l,@0xcd:8
     12e:	7a 02 00 ff 	7a 02 00 ff ff c2 mov.l	#0xffffc2,er2
     132:	ff c2 
     134:	01 00 6b 82 	01 00 6b 82 f1 60 mov.l	er2,@0xf160:16
     138:	f1 60 
     13a:	7a 02 00 ff 	7a 02 00 ff ff c3 mov.l	#0xffffc3,er2
     13e:	ff c3 
     140:	01 00 6b 82 	01 00 6b 82 f1 50 mov.l	er2,@0xf150:16
     144:	f1 50 
     146:	7a 02 00 ff 	7a 02 00 ff ff d3 mov.l	#0xffffd3,er2
     14a:	ff d3 
     14c:	01 00 6b 82 	01 00 6b 82 f1 58 mov.l	er2,@0xf158:16
     150:	f1 58 
     152:	7a 02 00 ff 	7a 02 00 ff ff d6 mov.l	#0xffffd6,er2
     156:	ff d6 
     158:	01 00 6b 82 	01 00 6b 82 f1 5c mov.l	er2,@0xf15c:16
     15c:	f1 5c 
     15e:	01 00 6d 76 	01 00 6d 76       mov.l	@er7+,er6
     162:	54 70       	54 70             rts	

00000164 <_post>:
     164:	01 00 6d f6 	01 00 6d f6       mov.l	er6,@-er7
     168:	0f f6       	0f f6             mov.l	er7,er6
     16a:	1b 97       	1b 97             subs	#0x4,er7
     16c:	7a 02 00 00 	7a 02 00 00 2d 4e mov.l	#0x2d4e,er2
     170:	2d 4e 
     172:	01 00 6d f2 	01 00 6d f2       mov.l	er2,@-er7
     176:	5e 00 06 ca 	5e 00 06 ca       jsr	@0x6ca:0
     17a:	0b 97       	0b 97             adds	#0x4,er7
     17c:	fa ff       	fa ff             mov.b	#0xff,r2l
     17e:	3a d6       	3a d6             mov.b	r2l,@0xd6:8
     180:	2a d6       	2a d6             mov.b	@0xd6:8,r2l
     182:	3a d3       	3a d3             mov.b	r2l,@0xd3:8
     184:	2a d3       	2a d3             mov.b	@0xd3:8,r2l
     186:	3a c3       	3a c3             mov.b	r2l,@0xc3:8
     188:	2a c3       	2a c3             mov.b	@0xc3:8,r2l
     18a:	3a c2       	3a c2             mov.b	r2l,@0xc2:8
     18c:	79 00 01 90 	79 00 01 90       mov.w	#0x190,r0
     190:	5e 00 04 c0 	5e 00 04 c0       jsr	@0x4c0:0
     194:	18 aa       	18 aa             sub.b	r2l,r2l
     196:	3a d6       	3a d6             mov.b	r2l,@0xd6:8
     198:	2a d6       	2a d6             mov.b	@0xd6:8,r2l
     19a:	3a d3       	3a d3             mov.b	r2l,@0xd3:8
     19c:	2a d3       	2a d3             mov.b	@0xd3:8,r2l
     19e:	3a c3       	3a c3             mov.b	r2l,@0xc3:8
     1a0:	2a c3       	2a c3             mov.b	@0xc3:8,r2l
     1a2:	3a c2       	3a c2             mov.b	r2l,@0xc2:8
     1a4:	79 00 01 90 	79 00 01 90       mov.w	#0x190,r0
     1a8:	5e 00 04 c0 	5e 00 04 c0       jsr	@0x4c0:0
     1ac:	7a 02 00 00 	7a 02 00 00 2d 54 mov.l	#0x2d54,er2
     1b0:	2d 54 
     1b2:	01 00 6d f2 	01 00 6d f2       mov.l	er2,@-er7
     1b6:	5e 00 06 ca 	5e 00 06 ca       jsr	@0x6ca:0
     1ba:	0b 97       	0b 97             adds	#0x4,er7
     1bc:	fa 01       	fa 01             mov.b	#0x1,r2l
     1be:	6e ea ff fe 	6e ea ff fe       mov.b	r2l,@(0xfffe:16,er6)
     1c2:	18 aa       	18 aa             sub.b	r2l,r2l
     1c4:	6e ea ff ff 	6e ea ff ff       mov.b	r2l,@(0xffff:16,er6)

000001c8 <.L3>:
     1c8:	6e 6a ff ff 	6e 6a ff ff       mov.b	@(0xffff:16,er6),r2l
     1cc:	aa 08       	aa 08             cmp.b	#0x8,r2l
     1ce:	43 02       	43 02             bls	.+2 (1d2)
     1d0:	40 24       	40 24             bra	.+36 (1f6)

000001d2 <.L6>:
     1d2:	6e 6a ff fe 	6e 6a ff fe       mov.b	@(0xfffe:16,er6),r2l
     1d6:	3a c2       	3a c2             mov.b	r2l,@0xc2:8
     1d8:	6e 6a ff fe 	6e 6a ff fe       mov.b	@(0xfffe:16,er6),r2l
     1dc:	10 0a       	10 0a             shll	r2l
     1de:	6e ea ff fe 	6e ea ff fe       mov.b	r2l,@(0xfffe:16,er6)
     1e2:	79 00 00 28 	79 00 00 28       mov.w	#0x28,r0
     1e6:	5e 00 04 c0 	5e 00 04 c0       jsr	@0x4c0:0
     1ea:	6e 6a ff ff 	6e 6a ff ff       mov.b	@(0xffff:16,er6),r2l
     1ee:	8a 01       	8a 01             add.b	#0x1,r2l
     1f0:	6e ea ff ff 	6e ea ff ff       mov.b	r2l,@(0xffff:16,er6)
     1f4:	40 d2       	40 d2             bra	.-46 (1c8)

000001f6 <.L4>:
     1f6:	7a 02 00 00 	7a 02 00 00 2d 57 mov.l	#0x2d57,er2
     1fa:	2d 57 
     1fc:	01 00 6d f2 	01 00 6d f2       mov.l	er2,@-er7
     200:	5e 00 06 ca 	5e 00 06 ca       jsr	@0x6ca:0
     204:	0b 97       	0b 97             adds	#0x4,er7
     206:	fa 01       	fa 01             mov.b	#0x1,r2l
     208:	6e ea ff fe 	6e ea ff fe       mov.b	r2l,@(0xfffe:16,er6)
     20c:	18 aa       	18 aa             sub.b	r2l,r2l
     20e:	6e ea ff ff 	6e ea ff ff       mov.b	r2l,@(0xffff:16,er6)

00000212 <.L7>:
     212:	6e 6a ff ff 	6e 6a ff ff       mov.b	@(0xffff:16,er6),r2l
     216:	aa 08       	aa 08             cmp.b	#0x8,r2l
     218:	43 02       	43 02             bls	.+2 (21c)
     21a:	40 24       	40 24             bra	.+36 (240)

0000021c <.L10>:
     21c:	6e 6a ff fe 	6e 6a ff fe       mov.b	@(0xfffe:16,er6),r2l
     220:	3a c3       	3a c3             mov.b	r2l,@0xc3:8
     222:	6e 6a ff fe 	6e 6a ff fe       mov.b	@(0xfffe:16,er6),r2l
     226:	10 0a       	10 0a             shll	r2l
     228:	6e ea ff fe 	6e ea ff fe       mov.b	r2l,@(0xfffe:16,er6)
     22c:	79 00 00 28 	79 00 00 28       mov.w	#0x28,r0
     230:	5e 00 04 c0 	5e 00 04 c0       jsr	@0x4c0:0
     234:	6e 6a ff ff 	6e 6a ff ff       mov.b	@(0xffff:16,er6),r2l
     238:	8a 01       	8a 01             add.b	#0x1,r2l
     23a:	6e ea ff ff 	6e ea ff ff       mov.b	r2l,@(0xffff:16,er6)
     23e:	40 d2       	40 d2             bra	.-46 (212)

00000240 <.L8>:
     240:	7a 02 00 00 	7a 02 00 00 2d 59 mov.l	#0x2d59,er2
     244:	2d 59 
     246:	01 00 6d f2 	01 00 6d f2       mov.l	er2,@-er7
     24a:	5e 00 06 ca 	5e 00 06 ca       jsr	@0x6ca:0
     24e:	0b 97       	0b 97             adds	#0x4,er7
     250:	fa 01       	fa 01             mov.b	#0x1,r2l
     252:	6e ea ff fe 	6e ea ff fe       mov.b	r2l,@(0xfffe:16,er6)
     256:	18 aa       	18 aa             sub.b	r2l,r2l
     258:	6e ea ff ff 	6e ea ff ff       mov.b	r2l,@(0xffff:16,er6)

0000025c <.L11>:
     25c:	6e 6a ff ff 	6e 6a ff ff       mov.b	@(0xffff:16,er6),r2l
     260:	aa 08       	aa 08             cmp.b	#0x8,r2l
     262:	43 02       	43 02             bls	.+2 (266)
     264:	40 24       	40 24             bra	.+36 (28a)

00000266 <.L14>:
     266:	6e 6a ff fe 	6e 6a ff fe       mov.b	@(0xfffe:16,er6),r2l
     26a:	3a d3       	3a d3             mov.b	r2l,@0xd3:8
     26c:	6e 6a ff fe 	6e 6a ff fe       mov.b	@(0xfffe:16,er6),r2l
     270:	10 0a       	10 0a             shll	r2l
     272:	6e ea ff fe 	6e ea ff fe       mov.b	r2l,@(0xfffe:16,er6)
     276:	79 00 00 28 	79 00 00 28       mov.w	#0x28,r0
     27a:	5e 00 04 c0 	5e 00 04 c0       jsr	@0x4c0:0
     27e:	6e 6a ff ff 	6e 6a ff ff       mov.b	@(0xffff:16,er6),r2l
     282:	8a 01       	8a 01             add.b	#0x1,r2l
     284:	6e ea ff ff 	6e ea ff ff       mov.b	r2l,@(0xffff:16,er6)
     288:	40 d2       	40 d2             bra	.-46 (25c)

0000028a <.L12>:
     28a:	7a 02 00 00 	7a 02 00 00 2d 5b mov.l	#0x2d5b,er2
     28e:	2d 5b 
     290:	01 00 6d f2 	01 00 6d f2       mov.l	er2,@-er7
     294:	5e 00 06 ca 	5e 00 06 ca       jsr	@0x6ca:0
     298:	0b 97       	0b 97             adds	#0x4,er7
     29a:	fa 01       	fa 01             mov.b	#0x1,r2l
     29c:	6e ea ff fe 	6e ea ff fe       mov.b	r2l,@(0xfffe:16,er6)
     2a0:	18 aa       	18 aa             sub.b	r2l,r2l
     2a2:	6e ea ff ff 	6e ea ff ff       mov.b	r2l,@(0xffff:16,er6)

000002a6 <.L15>:
     2a6:	6e 6a ff ff 	6e 6a ff ff       mov.b	@(0xffff:16,er6),r2l
     2aa:	aa 08       	aa 08             cmp.b	#0x8,r2l
     2ac:	43 02       	43 02             bls	.+2 (2b0)
     2ae:	40 24       	40 24             bra	.+36 (2d4)

000002b0 <.L18>:
     2b0:	6e 6a ff fe 	6e 6a ff fe       mov.b	@(0xfffe:16,er6),r2l
     2b4:	3a d6       	3a d6             mov.b	r2l,@0xd6:8
     2b6:	6e 6a ff fe 	6e 6a ff fe       mov.b	@(0xfffe:16,er6),r2l
     2ba:	10 0a       	10 0a             shll	r2l
     2bc:	6e ea ff fe 	6e ea ff fe       mov.b	r2l,@(0xfffe:16,er6)
     2c0:	79 00 00 28 	79 00 00 28       mov.w	#0x28,r0
     2c4:	5e 00 04 c0 	5e 00 04 c0       jsr	@0x4c0:0
     2c8:	6e 6a ff ff 	6e 6a ff ff       mov.b	@(0xffff:16,er6),r2l
     2cc:	8a 01       	8a 01             add.b	#0x1,r2l
     2ce:	6e ea ff ff 	6e ea ff ff       mov.b	r2l,@(0xffff:16,er6)
     2d2:	40 d2       	40 d2             bra	.-46 (2a6)

000002d4 <.L16>:
     2d4:	7a 02 00 00 	7a 02 00 00 2d 5d mov.l	#0x2d5d,er2
     2d8:	2d 5d 
     2da:	01 00 6d f2 	01 00 6d f2       mov.l	er2,@-er7
     2de:	5e 00 06 ca 	5e 00 06 ca       jsr	@0x6ca:0
     2e2:	0b 97       	0b 97             adds	#0x4,er7
     2e4:	0b 97       	0b 97             adds	#0x4,er7
     2e6:	01 00 6d 76 	01 00 6d 76       mov.l	@er7+,er6
     2ea:	54 70       	54 70             rts	

000002ec <_irq_init>:
     2ec:	01 00 6d f6 	01 00 6d f6       mov.l	er6,@-er7
     2f0:	0f f6       	0f f6             mov.l	er7,er6
     2f2:	18 aa       	18 aa             sub.b	r2l,r2l
     2f4:	3a f4       	3a f4             mov.b	r2l,@0xf4:8
     2f6:	7f f4 70 30 	7f f4 70 30       bset	#0x3,@0xf4:8
     2fa:	7f f4 70 20 	7f f4 70 20       bset	#0x2,@0xf4:8
     2fe:	18 aa       	18 aa             sub.b	r2l,r2l
     300:	3a f5       	3a f5             mov.b	r2l,@0xf5:8
     302:	7f f5 70 30 	7f f5 70 30       bset	#0x3,@0xf5:8
     306:	7f f5 70 20 	7f f5 70 20       bset	#0x2,@0xf5:8
     30a:	18 aa       	18 aa             sub.b	r2l,r2l
     30c:	3a f8       	3a f8             mov.b	r2l,@0xf8:8
     30e:	7f f8 70 50 	7f f8 70 50       bset	#0x5,@0xf8:8
     312:	01 00 6d 76 	01 00 6d 76       mov.l	@er7+,er6
     316:	54 70       	54 70             rts	

00000318 <_int_irq2>:
     318:	01 00 6d f6 	01 00 6d f6       mov.l	er6,@-er7
     31c:	0f f6       	0f f6             mov.l	er7,er6
     31e:	01 00 6d f0 	01 00 6d f0       mov.l	er0,@-er7
     322:	01 00 6d f1 	01 00 6d f1       mov.l	er1,@-er7
     326:	01 00 6d f2 	01 00 6d f2       mov.l	er2,@-er7
     32a:	01 00 6d f3 	01 00 6d f3       mov.l	er3,@-er7
     32e:	7a 02 00 ff 	7a 02 00 ff ff c2 mov.l	#0xffffc2,er2
     332:	ff c2 
     334:	01 00 6b 82 	01 00 6b 82 f1 60 mov.l	er2,@0xf160:16
     338:	f1 60 
     33a:	7a 02 00 ff 	7a 02 00 ff ff c3 mov.l	#0xffffc3,er2
     33e:	ff c3 
     340:	01 00 6b 82 	01 00 6b 82 f1 50 mov.l	er2,@0xf150:16
     344:	f1 50 
     346:	7a 02 00 ff 	7a 02 00 ff ff d3 mov.l	#0xffffd3,er2
     34a:	ff d3 
     34c:	01 00 6b 82 	01 00 6b 82 f1 58 mov.l	er2,@0xf158:16
     350:	f1 58 
     352:	7a 02 00 ff 	7a 02 00 ff ff d6 mov.l	#0xffffd6,er2
     356:	ff d6 
     358:	01 00 6b 82 	01 00 6b 82 f1 5c mov.l	er2,@0xf15c:16
     35c:	f1 5c 
     35e:	6b 03 f1 48 	6b 03 f1 48       mov.w	@0xf148:16,r3
     362:	6b 02 f1 54 	6b 02 f1 54       mov.w	@0xf154:16,r2
     366:	09 32       	09 32             add.w	r3,r2
     368:	6b 82 f1 48 	6b 82 f1 48       mov.w	r2,@0xf148:16
     36c:	6b 02 f1 48 	6b 02 f1 48       mov.w	@0xf148:16,r2
     370:	79 22 00 e3 	79 22 00 e3       cmp.w	#0xe3,r2
     374:	43 06       	43 06             bls	.+6 (37c)
     376:	19 22       	19 22             sub.w	r2,r2
     378:	6b 82 f1 48 	6b 82 f1 48       mov.w	r2,@0xf148:16

0000037c <.L22>:
     37c:	5e 00 05 54 	5e 00 05 54       jsr	@0x554:0
     380:	01 00 6d 73 	01 00 6d 73       mov.l	@er7+,er3
     384:	01 00 6d 72 	01 00 6d 72       mov.l	@er7+,er2
     388:	01 00 6d 71 	01 00 6d 71       mov.l	@er7+,er1
     38c:	01 00 6d 70 	01 00 6d 70       mov.l	@er7+,er0
     390:	01 00 6d 76 	01 00 6d 76       mov.l	@er7+,er6
     394:	56 70       	56 70             rte	

00000396 <_int_irq3>:
     396:	01 00 6d f6 	01 00 6d f6       mov.l	er6,@-er7
     39a:	0f f6       	0f f6             mov.l	er7,er6
     39c:	01 00 6d f0 	01 00 6d f0       mov.l	er0,@-er7
     3a0:	01 00 6d f1 	01 00 6d f1       mov.l	er1,@-er7
     3a4:	01 00 6d f2 	01 00 6d f2       mov.l	er2,@-er7
     3a8:	01 00 6d f3 	01 00 6d f3       mov.l	er3,@-er7
     3ac:	7a 02 00 ff 	7a 02 00 ff ff d3 mov.l	#0xffffd3,er2
     3b0:	ff d3 
     3b2:	01 00 6b 82 	01 00 6b 82 f1 60 mov.l	er2,@0xf160:16
     3b6:	f1 60 
     3b8:	7a 02 00 ff 	7a 02 00 ff ff d6 mov.l	#0xffffd6,er2
     3bc:	ff d6 
     3be:	01 00 6b 82 	01 00 6b 82 f1 50 mov.l	er2,@0xf150:16
     3c2:	f1 50 
     3c4:	7a 02 00 ff 	7a 02 00 ff ff c2 mov.l	#0xffffc2,er2
     3c8:	ff c2 
     3ca:	01 00 6b 82 	01 00 6b 82 f1 58 mov.l	er2,@0xf158:16
     3ce:	f1 58 
     3d0:	7a 02 00 ff 	7a 02 00 ff ff c3 mov.l	#0xffffc3,er2
     3d4:	ff c3 
     3d6:	01 00 6b 82 	01 00 6b 82 f1 5c mov.l	er2,@0xf15c:16
     3da:	f1 5c 
     3dc:	6b 03 f1 48 	6b 03 f1 48       mov.w	@0xf148:16,r3
     3e0:	6b 02 f1 54 	6b 02 f1 54       mov.w	@0xf154:16,r2
     3e4:	09 32       	09 32             add.w	r3,r2
     3e6:	6b 82 f1 48 	6b 82 f1 48       mov.w	r2,@0xf148:16
     3ea:	6b 02 f1 48 	6b 02 f1 48       mov.w	@0xf148:16,r2
     3ee:	79 22 00 e3 	79 22 00 e3       cmp.w	#0xe3,r2
     3f2:	43 06       	43 06             bls	.+6 (3fa)
     3f4:	19 22       	19 22             sub.w	r2,r2
     3f6:	6b 82 f1 48 	6b 82 f1 48       mov.w	r2,@0xf148:16

000003fa <.L25>:
     3fa:	5e 00 05 54 	5e 00 05 54       jsr	@0x554:0
     3fe:	01 00 6d 73 	01 00 6d 73       mov.l	@er7+,er3
     402:	01 00 6d 72 	01 00 6d 72       mov.l	@er7+,er2
     406:	01 00 6d 71 	01 00 6d 71       mov.l	@er7+,er1
     40a:	01 00 6d 70 	01 00 6d 70       mov.l	@er7+,er0
     40e:	01 00 6d 76 	01 00 6d 76       mov.l	@er7+,er6
     412:	56 70       	56 70             rte	

00000414 <_main>:
     414:	01 00 6d f6 	01 00 6d f6       mov.l	er6,@-er7
     418:	0f f6       	0f f6             mov.l	er7,er6
     41a:	7a 17 ff ff 	7a 17 ff ff ff d8 add.l	#0xffffffd8,er7
     41e:	ff d8 
     420:	06 3f       	06 3f             andc	#0x3f,ccr
     422:	7a 00 00 ff 	7a 00 00 ff f1 70 mov.l	#0xfff170,er0
     426:	f1 70 
     428:	5e 00 17 30 	5e 00 17 30       jsr	@0x1730:0
     42c:	19 22       	19 22             sub.w	r2,r2
     42e:	6b 82 f1 48 	6b 82 f1 48       mov.w	r2,@0xf148:16
     432:	fa 01       	fa 01             mov.b	#0x1,r2l
     434:	6a 8a f1 4d 	6a 8a f1 4d       mov.b	r2l,@0xf14d:16
     438:	79 02 00 01 	79 02 00 01       mov.w	#0x1,r2
     43c:	6b 82 f1 54 	6b 82 f1 54       mov.w	r2,@0xf154:16
     440:	5e 00 01 00 	5e 00 01 00       jsr	@0x100:0
     444:	5e 00 04 a4 	5e 00 04 a4       jsr	@0x4a4:0
     448:	5e 00 0d 4a 	5e 00 0d 4a       jsr	@0xd4a:0
     44c:	7a 02 00 00 	7a 02 00 00 2d 1a mov.l	#0x2d1a,er2
     450:	2d 1a 
     452:	01 00 6d f2 	01 00 6d f2       mov.l	er2,@-er7
     456:	7a 02 00 00 	7a 02 00 00 2d 64 mov.l	#0x2d64,er2
     45a:	2d 64 
     45c:	01 00 6d f2 	01 00 6d f2       mov.l	er2,@-er7
     460:	5e 00 06 ca 	5e 00 06 ca       jsr	@0x6ca:0
     464:	0b 97       	0b 97             adds	#0x4,er7
     466:	0b 97       	0b 97             adds	#0x4,er7
     468:	5e 00 01 64 	5e 00 01 64       jsr	@0x164:0
     46c:	79 00 06 32 	79 00 06 32       mov.w	#0x632,r0
     470:	5e 00 05 08 	5e 00 05 08       jsr	@0x508:0
     474:	5e 00 02 ec 	5e 00 02 ec       jsr	@0x2ec:0

00000478 <.L27>:
     478:	7a 02 00 00 	7a 02 00 00 2d 69 mov.l	#0x2d69,er2
     47c:	2d 69 
     47e:	01 00 6d f2 	01 00 6d f2       mov.l	er2,@-er7
     482:	5e 00 06 ca 	5e 00 06 ca       jsr	@0x6ca:0
     486:	0b 97       	0b 97             adds	#0x4,er7
     488:	0f e2       	0f e2             mov.l	er6,er2
     48a:	7a 12 ff ff 	7a 12 ff ff ff d8 add.l	#0xffffffd8,er2
     48e:	ff d8 
     490:	79 01 00 28 	79 01 00 28       mov.w	#0x28,r1
     494:	0f a0       	0f a0             mov.l	er2,er0
     496:	5e 00 0e 76 	5e 00 0e 76       jsr	@0xe76:0
     49a:	0f 82       	0f 82             mov.l	er0,er2
     49c:	0f a0       	0f a0             mov.l	er2,er0
     49e:	5e 00 10 82 	5e 00 10 82       jsr	@0x1082:0
     4a2:	40 d4       	40 d4             bra	.-44 (478)

000004a4 <_timer_init>:
     4a4:	01 00 6d f6 	01 00 6d f6       mov.l	er6,@-er7
     4a8:	0f f6       	0f f6             mov.l	er7,er6
     4aa:	fa 23       	fa 23             mov.b	#0x23,r2l
     4ac:	3a 64       	3a 64             mov.b	r2l,@0x64:8
     4ae:	79 02 07 d0 	79 02 07 d0       mov.w	#0x7d0,r2
     4b2:	6b 82 ff 6a 	6b 82 ff 6a       mov.w	r2,@0xff6a:16
     4b6:	7f 60 72 00 	7f 60 72 00       bclr	#0x0,@0x60:8
     4ba:	01 00 6d 76 	01 00 6d 76       mov.l	@er7+,er6
     4be:	54 70       	54 70             rts	

000004c0 <_wait>:
     4c0:	01 00 6d f6 	01 00 6d f6       mov.l	er6,@-er7
     4c4:	0f f6       	0f f6             mov.l	er7,er6
     4c6:	1b 97       	1b 97             subs	#0x4,er7
     4c8:	6f e0 ff fe 	6f e0 ff fe       mov.w	r0,@(0xfffe:16,er6)
     4cc:	7f 60 70 00 	7f 60 70 00       bset	#0x0,@0x60:8
     4d0:	19 22       	19 22             sub.w	r2,r2
     4d2:	6f e2 ff fc 	6f e2 ff fc       mov.w	r2,@(0xfffc:16,er6)

000004d6 <.L3>:
     4d6:	6f 63 ff fc 	6f 63 ff fc       mov.w	@(0xfffc:16,er6),r3
     4da:	6f 62 ff fe 	6f 62 ff fe       mov.w	@(0xfffe:16,er6),r2
     4de:	1d 23       	1d 23             cmp.w	r2,r3
     4e0:	4d 02       	4d 02             blt	.+2 (4e4)
     4e2:	40 18       	40 18             bra	.+24 (4fc)

000004e4 <.L9>:
     4e4:	2a 67       	2a 67             mov.b	@0x67:8,r2l
     4e6:	ea 01       	ea 01             and.b	#0x1,r2l
     4e8:	0c aa       	0c aa             mov.b	r2l,r2l
     4ea:	47 f8       	47 f8             beq	.-8 (4e4)
     4ec:	7f 67 72 00 	7f 67 72 00       bclr	#0x0,@0x67:8
     4f0:	6f 62 ff fc 	6f 62 ff fc       mov.w	@(0xfffc:16,er6),r2
     4f4:	0b 02       	0b 02             adds	#0x1,er2
     4f6:	6f e2 ff fc 	6f e2 ff fc       mov.w	r2,@(0xfffc:16,er6)
     4fa:	40 da       	40 da             bra	.-38 (4d6)

000004fc <.L4>:
     4fc:	7f 60 72 00 	7f 60 72 00       bclr	#0x0,@0x60:8
     500:	0b 97       	0b 97             adds	#0x4,er7
     502:	01 00 6d 76 	01 00 6d 76       mov.l	@er7+,er6
     506:	54 70       	54 70             rts	

00000508 <_timer1_init>:
     508:	01 00 6d f6 	01 00 6d f6       mov.l	er6,@-er7
     50c:	0f f6       	0f f6             mov.l	er7,er6
     50e:	1b 97       	1b 97             subs	#0x4,er7
     510:	6f e0 ff fe 	6f e0 ff fe       mov.w	r0,@(0xfffe:16,er6)
     514:	79 02 00 72 	79 02 00 72       mov.w	#0x72,r2
     518:	6b 82 f1 4a 	6b 82 f1 4a       mov.w	r2,@0xf14a:16
     51c:	fa 23       	fa 23             mov.b	#0x23,r2l
     51e:	3a 6e       	3a 6e             mov.b	r2l,@0x6e:8
     520:	6f 62 ff fe 	6f 62 ff fe       mov.w	@(0xfffe:16,er6),r2
     524:	6b 82 ff 74 	6b 82 ff 74       mov.w	r2,@0xff74:16
     528:	fa f9       	fa f9             mov.b	#0xf9,r2l
     52a:	3a 70       	3a 70             mov.b	r2l,@0x70:8
     52c:	7f 60 72 10 	7f 60 72 10       bclr	#0x1,@0x60:8
     530:	0b 97       	0b 97             adds	#0x4,er7
     532:	01 00 6d 76 	01 00 6d 76       mov.l	@er7+,er6
     536:	54 70       	54 70             rts	

00000538 <_timer1_interval>:
     538:	01 00 6d f6 	01 00 6d f6       mov.l	er6,@-er7
     53c:	0f f6       	0f f6             mov.l	er7,er6
     53e:	1b 97       	1b 97             subs	#0x4,er7
     540:	6f e0 ff fe 	6f e0 ff fe       mov.w	r0,@(0xfffe:16,er6)
     544:	6f 62 ff fe 	6f 62 ff fe       mov.w	@(0xfffe:16,er6),r2
     548:	6b 82 ff 74 	6b 82 ff 74       mov.w	r2,@0xff74:16
     54c:	0b 97       	0b 97             adds	#0x4,er7
     54e:	01 00 6d 76 	01 00 6d 76       mov.l	@er7+,er6
     552:	54 70       	54 70             rts	

00000554 <_timer1_start>:
     554:	01 00 6d f6 	01 00 6d f6       mov.l	er6,@-er7
     558:	0f f6       	0f f6             mov.l	er7,er6
     55a:	1b 97       	1b 97             subs	#0x4,er7
     55c:	1b 97       	1b 97             subs	#0x4,er7
     55e:	19 22       	19 22             sub.w	r2,r2
     560:	6b 82 ff 72 	6b 82 ff 72       mov.w	r2,@0xff72:16
     564:	7f 60 70 10 	7f 60 70 10       bset	#0x1,@0x60:8
     568:	6a 0a f1 4d 	6a 0a f1 4d       mov.b	@0xf14d:16,r2l
     56c:	0c aa       	0c aa             mov.b	r2l,r2l
     56e:	58 70 00 9e 	58 70 00 9e       beq	.+160 (610)
     572:	6b 02 ff 74 	6b 02 ff 74       mov.w	@0xff74:16,r2
     576:	17 f2       	17 f2             exts.l	er2
     578:	0f a0       	0f a0             mov.l	er2,er0
     57a:	5e 00 1f 5e 	5e 00 1f 5e       jsr	@0x1f5e:0
     57e:	01 00 6f e0 	01 00 6f e0 ff fc mov.l	er0,@(0xfffc:16,er6)
     582:	ff fc 
     584:	6b 02 ff 74 	6b 02 ff 74       mov.w	@0xff74:16,r2
     588:	0d 22       	0d 22             mov.w	r2,r2
     58a:	4c 18       	4c 18             bge	.+24 (5a4)
     58c:	7a 01 47 80 	7a 01 47 80 00 00 mov.l	#0x47800000,er1
     590:	00 00 
     592:	01 00 6f 60 	01 00 6f 60 ff fc mov.l	@(0xfffc:16,er6),er0
     596:	ff fc 
     598:	5e 00 22 56 	5e 00 22 56       jsr	@0x2256:0
     59c:	0f 82       	0f 82             mov.l	er0,er2
     59e:	01 00 6f e2 	01 00 6f e2 ff fc mov.l	er2,@(0xfffc:16,er6)
     5a2:	ff fc 

000005a4 <.L15>:
     5a4:	6b 02 f1 4a 	6b 02 f1 4a       mov.w	@0xf14a:16,r2
     5a8:	17 f2       	17 f2             exts.l	er2
     5aa:	0f a0       	0f a0             mov.l	er2,er0
     5ac:	5e 00 1f 5e 	5e 00 1f 5e       jsr	@0x1f5e:0
     5b0:	01 00 6f e0 	01 00 6f e0 ff f8 mov.l	er0,@(0xfff8:16,er6)
     5b4:	ff f8 
     5b6:	6b 02 f1 4a 	6b 02 f1 4a       mov.w	@0xf14a:16,r2
     5ba:	0d 22       	0d 22             mov.w	r2,r2
     5bc:	4c 18       	4c 18             bge	.+24 (5d6)
     5be:	7a 01 47 80 	7a 01 47 80 00 00 mov.l	#0x47800000,er1
     5c2:	00 00 
     5c4:	01 00 6f 60 	01 00 6f 60 ff f8 mov.l	@(0xfff8:16,er6),er0
     5c8:	ff f8 
     5ca:	5e 00 22 56 	5e 00 22 56       jsr	@0x2256:0
     5ce:	0f 82       	0f 82             mov.l	er0,er2
     5d0:	01 00 6f e2 	01 00 6f e2 ff f8 mov.l	er2,@(0xfff8:16,er6)
     5d4:	ff f8 

000005d6 <.L16>:
     5d6:	7a 01 42 e6 	7a 01 42 e6 00 00 mov.l	#0x42e60000,er1
     5da:	00 00 
     5dc:	01 00 6f 60 	01 00 6f 60 ff f8 mov.l	@(0xfff8:16,er6),er0
     5e0:	ff f8 
     5e2:	5e 00 23 44 	5e 00 23 44       jsr	@0x2344:0
     5e6:	0f 82       	0f 82             mov.l	er0,er2
     5e8:	0f a1       	0f a1             mov.l	er2,er1
     5ea:	01 00 6f 60 	01 00 6f 60 ff fc mov.l	@(0xfffc:16,er6),er0
     5ee:	ff fc 
     5f0:	5e 00 24 96 	5e 00 24 96       jsr	@0x2496:0
     5f4:	0f 82       	0f 82             mov.l	er0,er2
     5f6:	7a 01 3f 00 	7a 01 3f 00 00 00 mov.l	#0x3f000000,er1
     5fa:	00 00 
     5fc:	0f a0       	0f a0             mov.l	er2,er0
     5fe:	5e 00 22 56 	5e 00 22 56       jsr	@0x2256:0
     602:	0f 82       	0f 82             mov.l	er0,er2
     604:	0f a0       	0f a0             mov.l	er2,er0
     606:	5e 00 27 38 	5e 00 27 38       jsr	@0x2738:0
     60a:	0f 82       	0f 82             mov.l	er0,er2
     60c:	6b 82 ff 74 	6b 82 ff 74       mov.w	r2,@0xff74:16

00000610 <.L14>:
     610:	19 22       	19 22             sub.w	r2,r2
     612:	6b 82 f1 4a 	6b 82 f1 4a       mov.w	r2,@0xf14a:16
     616:	0b 97       	0b 97             adds	#0x4,er7
     618:	0b 97       	0b 97             adds	#0x4,er7
     61a:	01 00 6d 76 	01 00 6d 76       mov.l	@er7+,er6
     61e:	54 70       	54 70             rts	

00000620 <_timer1_stop>:
     620:	01 00 6d f6 	01 00 6d f6       mov.l	er6,@-er7
     624:	0f f6       	0f f6             mov.l	er7,er6
     626:	7f 60 72 10 	7f 60 72 10       bclr	#0x1,@0x60:8
     62a:	01 00 6d 76 	01 00 6d 76       mov.l	@er7+,er6
     62e:	54 70       	54 70             rts	

00000630 <_int_imia1>:
     630:	01 00 6d f6 	01 00 6d f6       mov.l	er6,@-er7
     634:	0f f6       	0f f6             mov.l	er7,er6
     636:	01 00 6d f0 	01 00 6d f0       mov.l	er0,@-er7
     63a:	01 00 6d f1 	01 00 6d f1       mov.l	er1,@-er7
     63e:	01 00 6d f2 	01 00 6d f2       mov.l	er2,@-er7
     642:	01 00 6d f3 	01 00 6d f3       mov.l	er3,@-er7
     646:	6b 03 f1 48 	6b 03 f1 48       mov.w	@0xf148:16,r3
     64a:	6b 02 f1 4a 	6b 02 f1 4a       mov.w	@0xf14a:16,r2
     64e:	09 23       	09 23             add.w	r2,r3
     650:	01 00 6b 02 	01 00 6b 02 f1 50 mov.l	@0xf150:16,er2
     654:	f1 50 
     656:	01 00 6d f2 	01 00 6d f2       mov.l	er2,@-er7
     65a:	01 00 6b 02 	01 00 6b 02 f1 60 mov.l	@0xf160:16,er2
     65e:	f1 60 
     660:	0d 31       	0d 31             mov.w	r3,r1
     662:	7a 00 00 ff 	7a 00 00 ff f1 70 mov.l	#0xfff170,er0
     666:	f1 70 
     668:	5e 00 1c 72 	5e 00 1c 72       jsr	@0x1c72:0
     66c:	0b 97       	0b 97             adds	#0x4,er7
     66e:	6b 03 f1 48 	6b 03 f1 48       mov.w	@0xf148:16,r3
     672:	6b 02 f1 4a 	6b 02 f1 4a       mov.w	@0xf14a:16,r2
     676:	09 32       	09 32             add.w	r3,r2
     678:	0d 23       	0d 23             mov.w	r2,r3
     67a:	79 13 00 72 	79 13 00 72       add.w	#0x72,r3
     67e:	01 00 6b 02 	01 00 6b 02 f1 5c mov.l	@0xf15c:16,er2
     682:	f1 5c 
     684:	01 00 6d f2 	01 00 6d f2       mov.l	er2,@-er7
     688:	01 00 6b 02 	01 00 6b 02 f1 58 mov.l	@0xf158:16,er2
     68c:	f1 58 
     68e:	0d 31       	0d 31             mov.w	r3,r1
     690:	7a 00 00 ff 	7a 00 00 ff f1 70 mov.l	#0xfff170,er0
     694:	f1 70 
     696:	5e 00 1c 72 	5e 00 1c 72       jsr	@0x1c72:0
     69a:	0b 97       	0b 97             adds	#0x4,er7
     69c:	6b 02 f1 4a 	6b 02 f1 4a       mov.w	@0xf14a:16,r2
     6a0:	79 22 00 fe 	79 22 00 fe       cmp.w	#0xfe,r2
     6a4:	42 0a       	42 0a             bhi	.+10 (6b0)
     6a6:	6b 02 f1 4a 	6b 02 f1 4a       mov.w	@0xf14a:16,r2
     6aa:	0b 02       	0b 02             adds	#0x1,er2
     6ac:	6b 82 f1 4a 	6b 82 f1 4a       mov.w	r2,@0xf14a:16

000006b0 <.L19>:
     6b0:	7f 71 72 00 	7f 71 72 00       bclr	#0x0,@0x71:8
     6b4:	01 00 6d 73 	01 00 6d 73       mov.l	@er7+,er3
     6b8:	01 00 6d 72 	01 00 6d 72       mov.l	@er7+,er2
     6bc:	01 00 6d 71 	01 00 6d 71       mov.l	@er7+,er1
     6c0:	01 00 6d 70 	01 00 6d 70       mov.l	@er7+,er0
     6c4:	01 00 6d 76 	01 00 6d 76       mov.l	@er7+,er6
     6c8:	56 70       	56 70             rte	

000006ca <_sci1_printf>:
     6ca:	01 00 6d f6 	01 00 6d f6       mov.l	er6,@-er7
     6ce:	0f f6       	0f f6             mov.l	er7,er6
     6d0:	7a 17 ff ff 	7a 17 ff ff ff b0 add.l	#0xffffffb0,er7
     6d4:	ff b0 
     6d6:	19 22       	19 22             sub.w	r2,r2
     6d8:	6f e2 ff fe 	6f e2 ff fe       mov.w	r2,@(0xfffe:16,er6)
     6dc:	1a a2       	1a a2             sub.l	er2,er2
     6de:	01 00 6f e2 	01 00 6f e2 ff e0 mov.l	er2,@(0xffe0:16,er6)
     6e2:	ff e0 
     6e4:	0f e2       	0f e2             mov.l	er6,er2
     6e6:	7a 12 00 00 	7a 12 00 00 00 0c add.l	#0xc,er2
     6ea:	00 0c 
     6ec:	01 00 6f e2 	01 00 6f e2 ff d0 mov.l	er2,@(0xffd0:16,er6)
     6f0:	ff d0 

000006f2 <.L5>:
     6f2:	01 00 6f 62 	01 00 6f 62 00 08 mov.l	@(0x8:16,er6),er2
     6f6:	00 08 
     6f8:	0f a3       	0f a3             mov.l	er2,er3
     6fa:	68 3b       	68 3b             mov.b	@er3,r3l
     6fc:	6e eb ff eb 	6e eb ff eb       mov.b	r3l,@(0xffeb:16,er6)
     700:	0b 02       	0b 02             adds	#0x1,er2
     702:	01 00 6f e2 	01 00 6f e2 00 08 mov.l	er2,@(0x8:16,er6)
     706:	00 08 
     708:	ab 25       	ab 25             cmp.b	#0x25,r3l
     70a:	46 02       	46 02             bne	.+2 (70e)
     70c:	40 36       	40 36             bra	.+54 (744)

0000070e <.L7>:
     70e:	6e 6a ff eb 	6e 6a ff eb       mov.b	@(0xffeb:16,er6),r2l
     712:	0c aa       	0c aa             mov.b	r2l,r2l
     714:	46 0c       	46 0c             bne	.+12 (722)
     716:	6f 62 ff fe 	6f 62 ff fe       mov.w	@(0xfffe:16,er6),r2
     71a:	6f e2 ff ce 	6f e2 ff ce       mov.w	r2,@(0xffce:16,er6)
     71e:	58 00 05 4a 	58 00 05 4a       bra	.+1356 (c6c)

00000722 <.L8>:
     722:	6e 68 ff eb 	6e 68 ff eb       mov.b	@(0xffeb:16,er6),r0l
     726:	5e 00 0e 12 	5e 00 0e 12       jsr	@0xe12:0
     72a:	6e 6a ff eb 	6e 6a ff eb       mov.b	@(0xffeb:16,er6),r2l
     72e:	aa 0a       	aa 0a             cmp.b	#0xa,r2l
     730:	46 06       	46 06             bne	.+6 (738)
     732:	f8 0d       	f8 0d             mov.b	#0xd,r0l
     734:	5e 00 0e 12 	5e 00 0e 12       jsr	@0xe12:0

00000738 <.L10>:
     738:	6f 62 ff fe 	6f 62 ff fe       mov.w	@(0xfffe:16,er6),r2
     73c:	0b 02       	0b 02             adds	#0x1,er2
     73e:	6f e2 ff fe 	6f e2 ff fe       mov.w	r2,@(0xfffe:16,er6)
     742:	40 ae       	40 ae             bra	.-82 (6f2)

00000744 <.L6>:
     744:	18 aa       	18 aa             sub.b	r2l,r2l
     746:	6e ea ff d7 	6e ea ff d7       mov.b	r2l,@(0xffd7:16,er6)
     74a:	18 aa       	18 aa             sub.b	r2l,r2l
     74c:	6e ea ff cd 	6e ea ff cd       mov.b	r2l,@(0xffcd:16,er6)
     750:	01 00 6f 62 	01 00 6f 62 00 08 mov.l	@(0x8:16,er6),er2
     754:	00 08 
     756:	0f a3       	0f a3             mov.l	er2,er3
     758:	68 3b       	68 3b             mov.b	@er3,r3l
     75a:	6e eb ff eb 	6e eb ff eb       mov.b	r3l,@(0xffeb:16,er6)
     75e:	0b 02       	0b 02             adds	#0x1,er2
     760:	01 00 6f e2 	01 00 6f e2 00 08 mov.l	er2,@(0x8:16,er6)
     764:	00 08 
     766:	ab 30       	ab 30             cmp.b	#0x30,r3l
     768:	46 06       	46 06             bne	.+6 (770)
     76a:	fb 01       	fb 01             mov.b	#0x1,r3l
     76c:	6e eb ff cd 	6e eb ff cd       mov.b	r3l,@(0xffcd:16,er6)

00000770 <.L12>:
     770:	6e 6a ff cd 	6e 6a ff cd       mov.b	@(0xffcd:16,er6),r2l
     774:	6e ea ff da 	6e ea ff da       mov.b	r2l,@(0xffda:16,er6)
     778:	0c aa       	0c aa             mov.b	r2l,r2l
     77a:	46 0e       	46 0e             bne	.+14 (78a)
     77c:	01 00 6f 62 	01 00 6f 62 00 08 mov.l	@(0x8:16,er6),er2
     780:	00 08 
     782:	1b 02       	1b 02             subs	#0x1,er2
     784:	01 00 6f e2 	01 00 6f e2 00 08 mov.l	er2,@(0x8:16,er6)
     788:	00 08 

0000078a <.L11>:
     78a:	01 00 6f 62 	01 00 6f 62 00 08 mov.l	@(0x8:16,er6),er2
     78e:	00 08 
     790:	0f a3       	0f a3             mov.l	er2,er3
     792:	68 3b       	68 3b             mov.b	@er3,r3l
     794:	6e eb ff eb 	6e eb ff eb       mov.b	r3l,@(0xffeb:16,er6)
     798:	0b 02       	0b 02             adds	#0x1,er2
     79a:	01 00 6f e2 	01 00 6f e2 00 08 mov.l	er2,@(0x8:16,er6)
     79e:	00 08 
     7a0:	6e 6a ff eb 	6e 6a ff eb       mov.b	@(0xffeb:16,er6),r2l
     7a4:	aa 30       	aa 30             cmp.b	#0x30,r2l
     7a6:	43 14       	43 14             bls	.+20 (7bc)
     7a8:	6e 6a ff eb 	6e 6a ff eb       mov.b	@(0xffeb:16,er6),r2l
     7ac:	aa 39       	aa 39             cmp.b	#0x39,r2l
     7ae:	42 0c       	42 0c             bhi	.+12 (7bc)
     7b0:	6e 6a ff eb 	6e 6a ff eb       mov.b	@(0xffeb:16,er6),r2l
     7b4:	8a d0       	8a d0             add.b	#0xd0,r2l
     7b6:	6e ea ff d9 	6e ea ff d9       mov.b	r2l,@(0xffd9:16,er6)
     7ba:	40 14       	40 14             bra	.+20 (7d0)

000007bc <.L13>:
     7bc:	18 aa       	18 aa             sub.b	r2l,r2l
     7be:	6e ea ff d9 	6e ea ff d9       mov.b	r2l,@(0xffd9:16,er6)
     7c2:	01 00 6f 62 	01 00 6f 62 00 08 mov.l	@(0x8:16,er6),er2
     7c6:	00 08 
     7c8:	1b 02       	1b 02             subs	#0x1,er2
     7ca:	01 00 6f e2 	01 00 6f e2 00 08 mov.l	er2,@(0x8:16,er6)
     7ce:	00 08 

000007d0 <.L14>:
     7d0:	01 00 6f 62 	01 00 6f 62 00 08 mov.l	@(0x8:16,er6),er2
     7d4:	00 08 
     7d6:	0f a3       	0f a3             mov.l	er2,er3
     7d8:	68 3b       	68 3b             mov.b	@er3,r3l
     7da:	6e eb ff eb 	6e eb ff eb       mov.b	r3l,@(0xffeb:16,er6)
     7de:	0b 02       	0b 02             adds	#0x1,er2
     7e0:	01 00 6f e2 	01 00 6f e2 00 08 mov.l	er2,@(0x8:16,er6)
     7e4:	00 08 
     7e6:	18 aa       	18 aa             sub.b	r2l,r2l
     7e8:	6e ea ff d8 	6e ea ff d8       mov.b	r2l,@(0xffd8:16,er6)
     7ec:	6e 6a ff eb 	6e 6a ff eb       mov.b	@(0xffeb:16,er6),r2l
     7f0:	aa 6c       	aa 6c             cmp.b	#0x6c,r2l
     7f2:	46 06       	46 06             bne	.+6 (7fa)
     7f4:	fa 01       	fa 01             mov.b	#0x1,r2l
     7f6:	6e ea ff d8 	6e ea ff d8       mov.b	r2l,@(0xffd8:16,er6)

000007fa <.L15>:
     7fa:	6e 6a ff d8 	6e 6a ff d8       mov.b	@(0xffd8:16,er6),r2l
     7fe:	0c aa       	0c aa             mov.b	r2l,r2l
     800:	46 0e       	46 0e             bne	.+14 (810)
     802:	01 00 6f 62 	01 00 6f 62 00 08 mov.l	@(0x8:16,er6),er2
     806:	00 08 
     808:	1b 02       	1b 02             subs	#0x1,er2
     80a:	01 00 6f e2 	01 00 6f e2 00 08 mov.l	er2,@(0x8:16,er6)
     80e:	00 08 

00000810 <.L16>:
     810:	18 aa       	18 aa             sub.b	r2l,r2l
     812:	6e ea ff d6 	6e ea ff d6       mov.b	r2l,@(0xffd6:16,er6)
     816:	01 00 6f 63 	01 00 6f 63 00 08 mov.l	@(0x8:16,er6),er3
     81a:	00 08 
     81c:	0f b2       	0f b2             mov.l	er3,er2
     81e:	68 2a       	68 2a             mov.b	@er2,r2l
     820:	6e ea ff eb 	6e ea ff eb       mov.b	r2l,@(0xffeb:16,er6)
     824:	17 52       	17 52             extu.w	r2
     826:	79 12 ff a8 	79 12 ff a8       add.w	#0xffa8,r2
     82a:	6f e2 ff b0 	6f e2 ff b0       mov.w	r2,@(0xffb0:16,er6)
     82e:	0b 03       	0b 03             adds	#0x1,er3
     830:	01 00 6f e3 	01 00 6f e3 00 08 mov.l	er3,@(0x8:16,er6)
     834:	00 08 
     836:	6f 62 ff b0 	6f 62 ff b0       mov.w	@(0xffb0:16,er6),r2
     83a:	79 22 00 20 	79 22 00 20       cmp.w	#0x20,r2
     83e:	42 40       	42 40             bhi	.+64 (880)
     840:	6f 62 ff b0 	6f 62 ff b0       mov.w	@(0xffb0:16,er6),r2
     844:	17 72       	17 72             extu.l	er2
     846:	10 32       	10 32             shll	er2
     848:	10 32       	10 32             shll	er2
     84a:	7a 12 00 00 	7a 12 00 00 2d 6c add.l	#0x2d6c,er2
     84e:	2d 6c 
     850:	01 00 69 22 	01 00 69 22       mov.l	@er2,er2
     854:	59 20       	59 20             jmp	@er2

00000856 <.L18>:
     856:	01 00 6f 62 	01 00 6f 62 ff d0 mov.l	@(0xffd0:16,er6),er2
     85a:	ff d0 
     85c:	0b 82       	0b 82             adds	#0x2,er2
     85e:	0f a3       	0f a3             mov.l	er2,er3
     860:	01 00 6f 62 	01 00 6f 62 ff d0 mov.l	@(0xffd0:16,er6),er2
     864:	ff d0 
     866:	0b 92       	0b 92             adds	#0x4,er2
     868:	01 00 6f e2 	01 00 6f e2 ff d0 mov.l	er2,@(0xffd0:16,er6)
     86c:	ff d0 
     86e:	6e 3a 00 01 	6e 3a 00 01       mov.b	@(0x1:16,er3),r2l
     872:	6e ea ff eb 	6e ea ff eb       mov.b	r2l,@(0xffeb:16,er6)
     876:	6f 62 ff fe 	6f 62 ff fe       mov.w	@(0xfffe:16,er6),r2
     87a:	0b 02       	0b 02             adds	#0x1,er2
     87c:	6f e2 ff fe 	6f e2 ff fe       mov.w	r2,@(0xfffe:16,er6)

00000880 <.L19>:
     880:	6e 68 ff eb 	6e 68 ff eb       mov.b	@(0xffeb:16,er6),r0l
     884:	5e 00 0e 12 	5e 00 0e 12       jsr	@0xe12:0
     888:	58 00 fe 66 	58 00 fe 66       bra	.-408 (6f2)

0000088c <.L20>:
     88c:	01 00 6f 63 	01 00 6f 63 ff d0 mov.l	@(0xffd0:16,er6),er3
     890:	ff d0 
     892:	01 00 6f 62 	01 00 6f 62 ff d0 mov.l	@(0xffd0:16,er6),er2
     896:	ff d0 
     898:	0b 92       	0b 92             adds	#0x4,er2
     89a:	01 00 6f e2 	01 00 6f e2 ff d0 mov.l	er2,@(0xffd0:16,er6)
     89e:	ff d0 
     8a0:	01 00 69 32 	01 00 69 32       mov.l	@er3,er2
     8a4:	01 00 6f e2 	01 00 6f e2 ff e4 mov.l	er2,@(0xffe4:16,er6)
     8a8:	ff e4 
     8aa:	01 00 6f 60 	01 00 6f 60 ff e4 mov.l	@(0xffe4:16,er6),er0
     8ae:	ff e4 
     8b0:	5e 00 0e 38 	5e 00 0e 38       jsr	@0xe38:0
     8b4:	01 00 6f 60 	01 00 6f 60 ff e4 mov.l	@(0xffe4:16,er6),er0
     8b8:	ff e4 
     8ba:	5e 00 2c a2 	5e 00 2c a2       jsr	@0x2ca2:0
     8be:	0f 83       	0f 83             mov.l	er0,er3
     8c0:	6f 62 ff fe 	6f 62 ff fe       mov.w	@(0xfffe:16,er6),r2
     8c4:	09 32       	09 32             add.w	r3,r2
     8c6:	6f e2 ff fe 	6f e2 ff fe       mov.w	r2,@(0xfffe:16,er6)
     8ca:	58 00 fe 24 	58 00 fe 24       bra	.-474 (6f2)

000008ce <.L21>:
     8ce:	6e 6a ff d8 	6e 6a ff d8       mov.b	@(0xffd8:16,er6),r2l
     8d2:	0c aa       	0c aa             mov.b	r2l,r2l
     8d4:	47 20       	47 20             beq	.+32 (8f6)
     8d6:	01 00 6f 62 	01 00 6f 62 ff d0 mov.l	@(0xffd0:16,er6),er2
     8da:	ff d0 
     8dc:	01 00 6f 63 	01 00 6f 63 ff d0 mov.l	@(0xffd0:16,er6),er3
     8e0:	ff d0 
     8e2:	0b 93       	0b 93             adds	#0x4,er3
     8e4:	01 00 6f e3 	01 00 6f e3 ff d0 mov.l	er3,@(0xffd0:16,er6)
     8e8:	ff d0 
     8ea:	01 00 69 22 	01 00 69 22       mov.l	@er2,er2
     8ee:	01 00 6f e2 	01 00 6f e2 ff c8 mov.l	er2,@(0xffc8:16,er6)
     8f2:	ff c8 
     8f4:	40 24       	40 24             bra	.+36 (91a)

000008f6 <.L22>:
     8f6:	01 00 6f 62 	01 00 6f 62 ff d0 mov.l	@(0xffd0:16,er6),er2
     8fa:	ff d0 
     8fc:	0b 82       	0b 82             adds	#0x2,er2
     8fe:	0f a3       	0f a3             mov.l	er2,er3
     900:	01 00 6f 62 	01 00 6f 62 ff d0 mov.l	@(0xffd0:16,er6),er2
     904:	ff d0 
     906:	0b 92       	0b 92             adds	#0x4,er2
     908:	01 00 6f e2 	01 00 6f e2 ff d0 mov.l	er2,@(0xffd0:16,er6)
     90c:	ff d0 
     90e:	69 32       	69 32             mov.w	@er3,r2
     910:	0d 23       	0d 23             mov.w	r2,r3
     912:	17 f3       	17 f3             exts.l	er3
     914:	01 00 6f e3 	01 00 6f e3 ff c8 mov.l	er3,@(0xffc8:16,er6)
     918:	ff c8 

0000091a <.L23>:
     91a:	01 00 6f 62 	01 00 6f 62 ff c8 mov.l	@(0xffc8:16,er6),er2
     91e:	ff c8 
     920:	01 00 6f e2 	01 00 6f e2 ff e0 mov.l	er2,@(0xffe0:16,er6)
     924:	ff e0 
     926:	1a a2       	1a a2             sub.l	er2,er2
     928:	8a 08       	8a 08             add.b	#0x8,r2l
     92a:	01 00 6f e2 	01 00 6f e2 ff dc mov.l	er2,@(0xffdc:16,er6)
     92e:	ff dc 
     930:	58 00 01 c4 	58 00 01 c4       bra	.+454 (af8)

00000934 <.L25>:
     934:	6e 6a ff d8 	6e 6a ff d8       mov.b	@(0xffd8:16,er6),r2l
     938:	0c aa       	0c aa             mov.b	r2l,r2l
     93a:	47 3e       	47 3e             beq	.+62 (97a)
     93c:	01 00 6f 63 	01 00 6f 63 ff d0 mov.l	@(0xffd0:16,er6),er3
     940:	ff d0 
     942:	01 00 6f 62 	01 00 6f 62 ff d0 mov.l	@(0xffd0:16,er6),er2
     946:	ff d0 
     948:	0b 92       	0b 92             adds	#0x4,er2
     94a:	01 00 6f e2 	01 00 6f e2 ff d0 mov.l	er2,@(0xffd0:16,er6)
     94e:	ff d0 
     950:	01 00 69 32 	01 00 69 32       mov.l	@er3,er2
     954:	01 00 6f e2 	01 00 6f e2 ff e0 mov.l	er2,@(0xffe0:16,er6)
     958:	ff e0 
     95a:	01 00 6f 62 	01 00 6f 62 ff e0 mov.l	@(0xffe0:16,er6),er2
     95e:	ff e0 
     960:	0f a2       	0f a2             mov.l	er2,er2
     962:	4c 54       	4c 54             bge	.+84 (9b8)
     964:	fa 01       	fa 01             mov.b	#0x1,r2l
     966:	6e ea ff d6 	6e ea ff d6       mov.b	r2l,@(0xffd6:16,er6)
     96a:	01 00 6f 62 	01 00 6f 62 ff e0 mov.l	@(0xffe0:16,er6),er2
     96e:	ff e0 
     970:	17 b2       	17 b2             neg.l	er2
     972:	01 00 6f e2 	01 00 6f e2 ff e0 mov.l	er2,@(0xffe0:16,er6)
     976:	ff e0 
     978:	40 3e       	40 3e             bra	.+62 (9b8)

0000097a <.L26>:
     97a:	01 00 6f 62 	01 00 6f 62 ff d0 mov.l	@(0xffd0:16,er6),er2
     97e:	ff d0 
     980:	0b 82       	0b 82             adds	#0x2,er2
     982:	0f a3       	0f a3             mov.l	er2,er3
     984:	01 00 6f 62 	01 00 6f 62 ff d0 mov.l	@(0xffd0:16,er6),er2
     988:	ff d0 
     98a:	0b 92       	0b 92             adds	#0x4,er2
     98c:	01 00 6f e2 	01 00 6f e2 ff d0 mov.l	er2,@(0xffd0:16,er6)
     990:	ff d0 
     992:	69 32       	69 32             mov.w	@er3,r2
     994:	17 f2       	17 f2             exts.l	er2
     996:	01 00 6f e2 	01 00 6f e2 ff e0 mov.l	er2,@(0xffe0:16,er6)
     99a:	ff e0 
     99c:	6f 62 ff e2 	6f 62 ff e2       mov.w	@(0xffe2:16,er6),r2
     9a0:	0d 22       	0d 22             mov.w	r2,r2
     9a2:	4c 14       	4c 14             bge	.+20 (9b8)
     9a4:	fa 01       	fa 01             mov.b	#0x1,r2l
     9a6:	6e ea ff d6 	6e ea ff d6       mov.b	r2l,@(0xffd6:16,er6)
     9aa:	01 00 6f 62 	01 00 6f 62 ff e0 mov.l	@(0xffe0:16,er6),er2
     9ae:	ff e0 
     9b0:	17 b2       	17 b2             neg.l	er2
     9b2:	01 00 6f e2 	01 00 6f e2 ff e0 mov.l	er2,@(0xffe0:16,er6)
     9b6:	ff e0 

000009b8 <.L28>:
     9b8:	1a a2       	1a a2             sub.l	er2,er2
     9ba:	8a 0a       	8a 0a             add.b	#0xa,r2l
     9bc:	01 00 6f e2 	01 00 6f e2 ff dc mov.l	er2,@(0xffdc:16,er6)
     9c0:	ff dc 
     9c2:	58 00 01 32 	58 00 01 32       bra	.+308 (af8)

000009c6 <.L30>:
     9c6:	6e 6a ff d8 	6e 6a ff d8       mov.b	@(0xffd8:16,er6),r2l
     9ca:	0c aa       	0c aa             mov.b	r2l,r2l
     9cc:	47 20       	47 20             beq	.+32 (9ee)
     9ce:	01 00 6f 62 	01 00 6f 62 ff d0 mov.l	@(0xffd0:16,er6),er2
     9d2:	ff d0 
     9d4:	01 00 6f 63 	01 00 6f 63 ff d0 mov.l	@(0xffd0:16,er6),er3
     9d8:	ff d0 
     9da:	0b 93       	0b 93             adds	#0x4,er3
     9dc:	01 00 6f e3 	01 00 6f e3 ff d0 mov.l	er3,@(0xffd0:16,er6)
     9e0:	ff d0 
     9e2:	01 00 69 22 	01 00 69 22       mov.l	@er2,er2
     9e6:	01 00 6f e2 	01 00 6f e2 ff c4 mov.l	er2,@(0xffc4:16,er6)
     9ea:	ff c4 
     9ec:	40 24       	40 24             bra	.+36 (a12)

000009ee <.L31>:
     9ee:	01 00 6f 62 	01 00 6f 62 ff d0 mov.l	@(0xffd0:16,er6),er2
     9f2:	ff d0 
     9f4:	0b 82       	0b 82             adds	#0x2,er2
     9f6:	0f a3       	0f a3             mov.l	er2,er3
     9f8:	01 00 6f 62 	01 00 6f 62 ff d0 mov.l	@(0xffd0:16,er6),er2
     9fc:	ff d0 
     9fe:	0b 92       	0b 92             adds	#0x4,er2
     a00:	01 00 6f e2 	01 00 6f e2 ff d0 mov.l	er2,@(0xffd0:16,er6)
     a04:	ff d0 
     a06:	69 32       	69 32             mov.w	@er3,r2
     a08:	0d 23       	0d 23             mov.w	r2,r3
     a0a:	17 f3       	17 f3             exts.l	er3
     a0c:	01 00 6f e3 	01 00 6f e3 ff c4 mov.l	er3,@(0xffc4:16,er6)
     a10:	ff c4 

00000a12 <.L32>:
     a12:	01 00 6f 62 	01 00 6f 62 ff c4 mov.l	@(0xffc4:16,er6),er2
     a16:	ff c4 
     a18:	01 00 6f e2 	01 00 6f e2 ff e0 mov.l	er2,@(0xffe0:16,er6)
     a1c:	ff e0 
     a1e:	1a a2       	1a a2             sub.l	er2,er2
     a20:	8a 02       	8a 02             add.b	#0x2,r2l
     a22:	01 00 6f e2 	01 00 6f e2 ff dc mov.l	er2,@(0xffdc:16,er6)
     a26:	ff dc 
     a28:	58 00 00 cc 	58 00 00 cc       bra	.+206 (af8)

00000a2c <.L33>:
     a2c:	6e 6a ff d8 	6e 6a ff d8       mov.b	@(0xffd8:16,er6),r2l
     a30:	0c aa       	0c aa             mov.b	r2l,r2l
     a32:	47 20       	47 20             beq	.+32 (a54)
     a34:	01 00 6f 62 	01 00 6f 62 ff d0 mov.l	@(0xffd0:16,er6),er2
     a38:	ff d0 
     a3a:	01 00 6f 63 	01 00 6f 63 ff d0 mov.l	@(0xffd0:16,er6),er3
     a3e:	ff d0 
     a40:	0b 93       	0b 93             adds	#0x4,er3
     a42:	01 00 6f e3 	01 00 6f e3 ff d0 mov.l	er3,@(0xffd0:16,er6)
     a46:	ff d0 
     a48:	01 00 69 22 	01 00 69 22       mov.l	@er2,er2
     a4c:	01 00 6f e2 	01 00 6f e2 ff c0 mov.l	er2,@(0xffc0:16,er6)
     a50:	ff c0 
     a52:	40 24       	40 24             bra	.+36 (a78)

00000a54 <.L34>:
     a54:	01 00 6f 62 	01 00 6f 62 ff d0 mov.l	@(0xffd0:16,er6),er2
     a58:	ff d0 
     a5a:	0b 82       	0b 82             adds	#0x2,er2
     a5c:	0f a3       	0f a3             mov.l	er2,er3
     a5e:	01 00 6f 62 	01 00 6f 62 ff d0 mov.l	@(0xffd0:16,er6),er2
     a62:	ff d0 
     a64:	0b 92       	0b 92             adds	#0x4,er2
     a66:	01 00 6f e2 	01 00 6f e2 ff d0 mov.l	er2,@(0xffd0:16,er6)
     a6a:	ff d0 
     a6c:	69 32       	69 32             mov.w	@er3,r2
     a6e:	0d 23       	0d 23             mov.w	r2,r3
     a70:	17 f3       	17 f3             exts.l	er3
     a72:	01 00 6f e3 	01 00 6f e3 ff c0 mov.l	er3,@(0xffc0:16,er6)
     a76:	ff c0 

00000a78 <.L35>:
     a78:	01 00 6f 62 	01 00 6f 62 ff c0 mov.l	@(0xffc0:16,er6),er2
     a7c:	ff c0 
     a7e:	01 00 6f e2 	01 00 6f e2 ff e0 mov.l	er2,@(0xffe0:16,er6)
     a82:	ff e0 
     a84:	1a a2       	1a a2             sub.l	er2,er2
     a86:	8a 0a       	8a 0a             add.b	#0xa,r2l
     a88:	01 00 6f e2 	01 00 6f e2 ff dc mov.l	er2,@(0xffdc:16,er6)
     a8c:	ff dc 
     a8e:	40 68       	40 68             bra	.+104 (af8)

00000a90 <.L36>:
     a90:	fa 01       	fa 01             mov.b	#0x1,r2l
     a92:	6e ea ff d7 	6e ea ff d7       mov.b	r2l,@(0xffd7:16,er6)

00000a96 <.L37>:
     a96:	1a a2       	1a a2             sub.l	er2,er2
     a98:	8a 10       	8a 10             add.b	#0x10,r2l
     a9a:	01 00 6f e2 	01 00 6f e2 ff dc mov.l	er2,@(0xffdc:16,er6)
     a9e:	ff dc 
     aa0:	6e 6a ff d8 	6e 6a ff d8       mov.b	@(0xffd8:16,er6),r2l
     aa4:	0c aa       	0c aa             mov.b	r2l,r2l
     aa6:	47 20       	47 20             beq	.+32 (ac8)
     aa8:	01 00 6f 62 	01 00 6f 62 ff d0 mov.l	@(0xffd0:16,er6),er2
     aac:	ff d0 
     aae:	01 00 6f 63 	01 00 6f 63 ff d0 mov.l	@(0xffd0:16,er6),er3
     ab2:	ff d0 
     ab4:	0b 93       	0b 93             adds	#0x4,er3
     ab6:	01 00 6f e3 	01 00 6f e3 ff d0 mov.l	er3,@(0xffd0:16,er6)
     aba:	ff d0 
     abc:	01 00 69 22 	01 00 69 22       mov.l	@er2,er2
     ac0:	01 00 6f e2 	01 00 6f e2 ff bc mov.l	er2,@(0xffbc:16,er6)
     ac4:	ff bc 
     ac6:	40 24       	40 24             bra	.+36 (aec)

00000ac8 <.L38>:
     ac8:	01 00 6f 62 	01 00 6f 62 ff d0 mov.l	@(0xffd0:16,er6),er2
     acc:	ff d0 
     ace:	0b 82       	0b 82             adds	#0x2,er2
     ad0:	0f a3       	0f a3             mov.l	er2,er3
     ad2:	01 00 6f 62 	01 00 6f 62 ff d0 mov.l	@(0xffd0:16,er6),er2
     ad6:	ff d0 
     ad8:	0b 92       	0b 92             adds	#0x4,er2
     ada:	01 00 6f e2 	01 00 6f e2 ff d0 mov.l	er2,@(0xffd0:16,er6)
     ade:	ff d0 
     ae0:	69 32       	69 32             mov.w	@er3,r2
     ae2:	0d 23       	0d 23             mov.w	r2,r3
     ae4:	17 f3       	17 f3             exts.l	er3
     ae6:	01 00 6f e3 	01 00 6f e3 ff bc mov.l	er3,@(0xffbc:16,er6)
     aea:	ff bc 

00000aec <.L39>:
     aec:	01 00 6f 62 	01 00 6f 62 ff bc mov.l	@(0xffbc:16,er6),er2
     af0:	ff bc 
     af2:	01 00 6f e2 	01 00 6f e2 ff e0 mov.l	er2,@(0xffe0:16,er6)
     af6:	ff e0 

00000af8 <.L24>:
     af8:	19 22       	19 22             sub.w	r2,r2
     afa:	6f e2 ff fe 	6f e2 ff fe       mov.w	r2,@(0xfffe:16,er6)

00000afe <.L40>:
     afe:	6f 62 ff fe 	6f 62 ff fe       mov.w	@(0xfffe:16,er6),r2
     b02:	79 22 00 0f 	79 22 00 0f       cmp.w	#0xf,r2
     b06:	4f 02       	4f 02             ble	.+2 (b0a)
     b08:	40 42       	40 42             bra	.+66 (b4c)

00000b0a <.L43>:
     b0a:	6f 62 ff fe 	6f 62 ff fe       mov.w	@(0xfffe:16,er6),r2
     b0e:	17 f2       	17 f2             exts.l	er2
     b10:	0a e2       	0a e2             add.l	er6,er2
     b12:	7a 12 ff ff 	7a 12 ff ff ff ec add.l	#0xffffffec,er2
     b16:	ff ec 
     b18:	01 00 6f e2 	01 00 6f e2 ff b8 mov.l	er2,@(0xffb8:16,er6)
     b1c:	ff b8 
     b1e:	6e 6a ff da 	6e 6a ff da       mov.b	@(0xffda:16,er6),r2l
     b22:	0c aa       	0c aa             mov.b	r2l,r2l
     b24:	47 08       	47 08             beq	.+8 (b2e)
     b26:	fb 30       	fb 30             mov.b	#0x30,r3l
     b28:	6e eb ff b7 	6e eb ff b7       mov.b	r3l,@(0xffb7:16,er6)
     b2c:	40 06       	40 06             bra	.+6 (b34)

00000b2e <.L44>:
     b2e:	fa 20       	fa 20             mov.b	#0x20,r2l
     b30:	6e ea ff b7 	6e ea ff b7       mov.b	r2l,@(0xffb7:16,er6)

00000b34 <.L45>:
     b34:	6e 6a ff b7 	6e 6a ff b7       mov.b	@(0xffb7:16,er6),r2l
     b38:	01 00 6f 63 	01 00 6f 63 ff b8 mov.l	@(0xffb8:16,er6),er3
     b3c:	ff b8 
     b3e:	68 ba       	68 ba             mov.b	r2l,@er3
     b40:	6f 62 ff fe 	6f 62 ff fe       mov.w	@(0xfffe:16,er6),r2
     b44:	0b 02       	0b 02             adds	#0x1,er2
     b46:	6f e2 ff fe 	6f e2 ff fe       mov.w	r2,@(0xfffe:16,er6)
     b4a:	40 b2       	40 b2             bra	.-78 (afe)

00000b4c <.L41>:
     b4c:	0f e2       	0f e2             mov.l	er6,er2
     b4e:	7a 12 ff ff 	7a 12 ff ff ff ec add.l	#0xffffffec,er2
     b52:	ff ec 
     b54:	7a 12 00 00 	7a 12 00 00 00 10 add.l	#0x10,er2
     b58:	00 10 
     b5a:	01 00 6f e2 	01 00 6f e2 ff e4 mov.l	er2,@(0xffe4:16,er6)
     b5e:	ff e4 
     b60:	01 00 6f 62 	01 00 6f 62 ff e4 mov.l	@(0xffe4:16,er6),er2
     b64:	ff e4 
     b66:	1b 02       	1b 02             subs	#0x1,er2
     b68:	0f a3       	0f a3             mov.l	er2,er3
     b6a:	01 00 6f e3 	01 00 6f e3 ff e4 mov.l	er3,@(0xffe4:16,er6)
     b6e:	ff e4 
     b70:	18 aa       	18 aa             sub.b	r2l,r2l
     b72:	68 ba       	68 ba             mov.b	r2l,@er3

00000b74 <.L46>:
     b74:	01 00 6f 62 	01 00 6f 62 ff e0 mov.l	@(0xffe0:16,er6),er2
     b78:	ff e0 
     b7a:	01 00 6f 61 	01 00 6f 61 ff dc mov.l	@(0xffdc:16,er6),er1
     b7e:	ff dc 
     b80:	0f a0       	0f a0             mov.l	er2,er0
     b82:	5e 00 27 c4 	5e 00 27 c4       jsr	@0x27c4:0
     b86:	0f 82       	0f 82             mov.l	er0,er2
     b88:	8a 30       	8a 30             add.b	#0x30,r2l
     b8a:	6e ea ff db 	6e ea ff db       mov.b	r2l,@(0xffdb:16,er6)
     b8e:	6e 6a ff db 	6e 6a ff db       mov.b	@(0xffdb:16,er6),r2l
     b92:	aa 39       	aa 39             cmp.b	#0x39,r2l
     b94:	43 34       	43 34             bls	.+52 (bca)
     b96:	6e 6b ff db 	6e 6b ff db       mov.b	@(0xffdb:16,er6),r3l
     b9a:	17 53       	17 53             extu.w	r3
     b9c:	6f e3 ff b4 	6f e3 ff b4       mov.w	r3,@(0xffb4:16,er6)
     ba0:	6e 6a ff d7 	6e 6a ff d7       mov.b	@(0xffd7:16,er6),r2l
     ba4:	0c aa       	0c aa             mov.b	r2l,r2l
     ba6:	47 0e       	47 0e             beq	.+14 (bb6)
     ba8:	6f 62 ff b4 	6f 62 ff b4       mov.w	@(0xffb4:16,er6),r2
     bac:	79 12 00 07 	79 12 00 07       add.w	#0x7,r2
     bb0:	6e ea ff b3 	6e ea ff b3       mov.b	r2l,@(0xffb3:16,er6)
     bb4:	40 0c       	40 0c             bra	.+12 (bc2)

00000bb6 <.L50>:
     bb6:	6f 62 ff b4 	6f 62 ff b4       mov.w	@(0xffb4:16,er6),r2
     bba:	79 12 00 27 	79 12 00 27       add.w	#0x27,r2
     bbe:	6e ea ff b3 	6e ea ff b3       mov.b	r2l,@(0xffb3:16,er6)

00000bc2 <.L51>:
     bc2:	6e 6a ff b3 	6e 6a ff b3       mov.b	@(0xffb3:16,er6),r2l
     bc6:	6e ea ff db 	6e ea ff db       mov.b	r2l,@(0xffdb:16,er6)

00000bca <.L49>:
     bca:	01 00 6f 62 	01 00 6f 62 ff e4 mov.l	@(0xffe4:16,er6),er2
     bce:	ff e4 
     bd0:	1b 02       	1b 02             subs	#0x1,er2
     bd2:	0f a3       	0f a3             mov.l	er2,er3
     bd4:	01 00 6f e3 	01 00 6f e3 ff e4 mov.l	er3,@(0xffe4:16,er6)
     bd8:	ff e4 
     bda:	6e 6a ff db 	6e 6a ff db       mov.b	@(0xffdb:16,er6),r2l
     bde:	68 ba       	68 ba             mov.b	r2l,@er3
     be0:	01 00 6f 61 	01 00 6f 61 ff dc mov.l	@(0xffdc:16,er6),er1
     be4:	ff dc 
     be6:	01 00 6f 60 	01 00 6f 60 ff e0 mov.l	@(0xffe0:16,er6),er0
     bea:	ff e0 
     bec:	5e 00 27 b2 	5e 00 27 b2       jsr	@0x27b2:0
     bf0:	0f 82       	0f 82             mov.l	er0,er2
     bf2:	01 00 6f e2 	01 00 6f e2 ff e0 mov.l	er2,@(0xffe0:16,er6)
     bf6:	ff e0 
     bf8:	01 00 6f 62 	01 00 6f 62 ff e0 mov.l	@(0xffe0:16,er6),er2
     bfc:	ff e0 
     bfe:	0f a2       	0f a2             mov.l	er2,er2
     c00:	58 60 ff 70 	58 60 ff 70       bne	.-142 (b74)
     c04:	6e 6a ff d6 	6e 6a ff d6       mov.b	@(0xffd6:16,er6),r2l
     c08:	0c aa       	0c aa             mov.b	r2l,r2l
     c0a:	47 14       	47 14             beq	.+20 (c20)
     c0c:	01 00 6f 62 	01 00 6f 62 ff e4 mov.l	@(0xffe4:16,er6),er2
     c10:	ff e4 
     c12:	1b 02       	1b 02             subs	#0x1,er2
     c14:	0f a3       	0f a3             mov.l	er2,er3
     c16:	01 00 6f e3 	01 00 6f e3 ff e4 mov.l	er3,@(0xffe4:16,er6)
     c1a:	ff e4 
     c1c:	fa 2d       	fa 2d             mov.b	#0x2d,r2l
     c1e:	68 ba       	68 ba             mov.b	r2l,@er3

00000c20 <.L53>:
     c20:	6e 6a ff d9 	6e 6a ff d9       mov.b	@(0xffd9:16,er6),r2l
     c24:	0c aa       	0c aa             mov.b	r2l,r2l
     c26:	47 20       	47 20             beq	.+32 (c48)
     c28:	0f e3       	0f e3             mov.l	er6,er3
     c2a:	7a 13 ff ff 	7a 13 ff ff ff ec add.l	#0xffffffec,er3
     c2e:	ff ec 
     c30:	6e 6a ff d9 	6e 6a ff d9       mov.b	@(0xffd9:16,er6),r2l
     c34:	17 52       	17 52             extu.w	r2
     c36:	17 72       	17 72             extu.l	er2
     c38:	1a a3       	1a a3             sub.l	er2,er3
     c3a:	0f b2       	0f b2             mov.l	er3,er2
     c3c:	7a 12 00 00 	7a 12 00 00 00 0f add.l	#0xf,er2
     c40:	00 0f 
     c42:	01 00 6f e2 	01 00 6f e2 ff e4 mov.l	er2,@(0xffe4:16,er6)
     c46:	ff e4 

00000c48 <.L54>:
     c48:	01 00 6f 60 	01 00 6f 60 ff e4 mov.l	@(0xffe4:16,er6),er0
     c4c:	ff e4 
     c4e:	5e 00 0e 38 	5e 00 0e 38       jsr	@0xe38:0
     c52:	01 00 6f 60 	01 00 6f 60 ff e4 mov.l	@(0xffe4:16,er6),er0
     c56:	ff e4 
     c58:	5e 00 2c a2 	5e 00 2c a2       jsr	@0x2ca2:0
     c5c:	0f 82       	0f 82             mov.l	er0,er2
     c5e:	6f 63 ff fe 	6f 63 ff fe       mov.w	@(0xfffe:16,er6),r3
     c62:	09 32       	09 32             add.w	r3,r2
     c64:	6f e2 ff fe 	6f e2 ff fe       mov.w	r2,@(0xfffe:16,er6)
     c68:	58 00 fa 86 	58 00 fa 86       bra	.-1400 (6f2)

00000c6c <.L1>:
     c6c:	6f 60 ff ce 	6f 60 ff ce       mov.w	@(0xffce:16,er6),r0
     c70:	7a 17 00 00 	7a 17 00 00 00 50 add.l	#0x50,er7
     c74:	00 50 
     c76:	01 00 6d 76 	01 00 6d 76       mov.l	@er7+,er6
     c7a:	54 70       	54 70             rts	

00000c7c <_int_rxi1>:
     c7c:	01 00 6d f6 	01 00 6d f6       mov.l	er6,@-er7
     c80:	0f f6       	0f f6             mov.l	er7,er6
     c82:	01 00 6d f0 	01 00 6d f0       mov.l	er0,@-er7
     c86:	01 00 6d f1 	01 00 6d f1       mov.l	er1,@-er7
     c8a:	01 00 6d f2 	01 00 6d f2       mov.l	er2,@-er7
     c8e:	01 00 6d f3 	01 00 6d f3       mov.l	er3,@-er7
     c92:	2a bc       	2a bc             mov.b	@0xbc:8,r2l
     c94:	12 8a       	12 8a             rotl	r2l
     c96:	12 8a       	12 8a             rotl	r2l
     c98:	ea 03       	ea 03             and.b	#0x3,r2l
     c9a:	ea 01       	ea 01             and.b	#0x1,r2l
     c9c:	17 52       	17 52             extu.w	r2
     c9e:	79 22 00 01 	79 22 00 01       cmp.w	#0x1,r2
     ca2:	47 04       	47 04             beq	.+4 (ca8)
     ca4:	58 00 00 84 	58 00 00 84       bra	.+134 (d2c)

00000ca8 <.L58>:
     ca8:	01 00 6b 03 	01 00 6b 03 ef 68 mov.l	@0xef68:16,er3
     cac:	ef 68 
     cae:	01 00 6b 02 	01 00 6b 02 ef 6c mov.l	@0xef6c:16,er2
     cb2:	ef 6c 
     cb4:	1f a3       	1f a3             cmp.l	er2,er3
     cb6:	46 1a       	46 1a             bne	.+26 (cd2)
     cb8:	6a 0a ef 70 	6a 0a ef 70       mov.b	@0xef70:16,r2l
     cbc:	0c aa       	0c aa             mov.b	r2l,r2l
     cbe:	47 12       	47 12             beq	.+18 (cd2)
     cc0:	7a 02 00 00 	7a 02 00 00 2d f0 mov.l	#0x2df0,er2
     cc4:	2d f0 
     cc6:	01 00 6d f2 	01 00 6d f2       mov.l	er2,@-er7
     cca:	5e 00 06 ca 	5e 00 06 ca       jsr	@0x6ca:0
     cce:	0b 97       	0b 97             adds	#0x4,er7
     cd0:	40 54       	40 54             bra	.+84 (d26)

00000cd2 <.L59>:
     cd2:	01 00 6b 03 	01 00 6b 03 ef 68 mov.l	@0xef68:16,er3
     cd6:	ef 68 
     cd8:	2a bd       	2a bd             mov.b	@0xbd:8,r2l
     cda:	68 ba       	68 ba             mov.b	r2l,@er3
     cdc:	01 00 6b 02 	01 00 6b 02 ef 68 mov.l	@0xef68:16,er2
     ce0:	ef 68 
     ce2:	68 2a       	68 2a             mov.b	@er2,r2l
     ce4:	aa 03       	aa 03             cmp.b	#0x3,r2l
     ce6:	46 08       	46 08             bne	.+8 (cf0)
     ce8:	fa 01       	fa 01             mov.b	#0x1,r2l
     cea:	6a 8a f1 80 	6a 8a f1 80       mov.b	r2l,@0xf180:16
     cee:	40 06       	40 06             bra	.+6 (cf6)

00000cf0 <.L61>:
     cf0:	18 aa       	18 aa             sub.b	r2l,r2l
     cf2:	6a 8a f1 80 	6a 8a f1 80       mov.b	r2l,@0xf180:16

00000cf6 <.L62>:
     cf6:	01 00 6b 02 	01 00 6b 02 ef 68 mov.l	@0xef68:16,er2
     cfa:	ef 68 
     cfc:	0b 02       	0b 02             adds	#0x1,er2
     cfe:	01 00 6b 82 	01 00 6b 82 ef 68 mov.l	er2,@0xef68:16
     d02:	ef 68 
     d04:	01 00 6b 03 	01 00 6b 03 ef 68 mov.l	@0xef68:16,er3
     d08:	ef 68 
     d0a:	01 00 6b 02 	01 00 6b 02 ef 64 mov.l	@0xef64:16,er2
     d0e:	ef 64 
     d10:	1f a3       	1f a3             cmp.l	er2,er3
     d12:	46 0c       	46 0c             bne	.+12 (d20)
     d14:	7a 02 00 ff 	7a 02 00 ff ef 10 mov.l	#0xffef10,er2
     d18:	ef 10 
     d1a:	01 00 6b 82 	01 00 6b 82 ef 68 mov.l	er2,@0xef68:16
     d1e:	ef 68 

00000d20 <.L63>:
     d20:	fa 01       	fa 01             mov.b	#0x1,r2l
     d22:	6a 8a ef 70 	6a 8a ef 70       mov.b	r2l,@0xef70:16

00000d26 <.L60>:
     d26:	7f bc 72 60 	7f bc 72 60       bclr	#0x6,@0xbc:8
     d2a:	40 08       	40 08             bra	.+8 (d34)

00000d2c <.L64>:
     d2c:	fa c7       	fa c7             mov.b	#0xc7,r2l
     d2e:	2b bc       	2b bc             mov.b	@0xbc:8,r3l
     d30:	16 ba       	16 ba             and.b	r3l,r2l
     d32:	3a bc       	3a bc             mov.b	r2l,@0xbc:8

00000d34 <.L56>:
     d34:	01 00 6d 73 	01 00 6d 73       mov.l	@er7+,er3
     d38:	01 00 6d 72 	01 00 6d 72       mov.l	@er7+,er2
     d3c:	01 00 6d 71 	01 00 6d 71       mov.l	@er7+,er1
     d40:	01 00 6d 70 	01 00 6d 70       mov.l	@er7+,er0
     d44:	01 00 6d 76 	01 00 6d 76       mov.l	@er7+,er6
     d48:	56 70       	56 70             rte	

00000d4a <_sci1_init>:
     d4a:	01 00 6d f6 	01 00 6d f6       mov.l	er6,@-er7
     d4e:	0f f6       	0f f6             mov.l	er7,er6
     d50:	18 aa       	18 aa             sub.b	r2l,r2l
     d52:	3a ba       	3a ba             mov.b	r2l,@0xba:8
     d54:	18 aa       	18 aa             sub.b	r2l,r2l
     d56:	3a b8       	3a b8             mov.b	r2l,@0xb8:8
     d58:	fa 19       	fa 19             mov.b	#0x19,r2l
     d5a:	3a b9       	3a b9             mov.b	r2l,@0xb9:8
     d5c:	79 00 00 01 	79 00 00 01       mov.w	#0x1,r0
     d60:	5e 00 04 c0 	5e 00 04 c0       jsr	@0x4c0:0
     d64:	fa 30       	fa 30             mov.b	#0x30,r2l
     d66:	3a ba       	3a ba             mov.b	r2l,@0xba:8
     d68:	fb 80       	fb 80             mov.b	#0x80,r3l
     d6a:	2a bc       	2a bc             mov.b	@0xbc:8,r2l
     d6c:	16 ba       	16 ba             and.b	r3l,r2l
     d6e:	3a bc       	3a bc             mov.b	r2l,@0xbc:8
     d70:	18 aa       	18 aa             sub.b	r2l,r2l
     d72:	6a 8a ef 70 	6a 8a ef 70       mov.b	r2l,@0xef70:16
     d76:	7a 02 00 ff 	7a 02 00 ff ef 10 mov.l	#0xffef10,er2
     d7a:	ef 10 
     d7c:	01 00 6b 82 	01 00 6b 82 ef 68 mov.l	er2,@0xef68:16
     d80:	ef 68 
     d82:	7a 02 00 ff 	7a 02 00 ff ef 10 mov.l	#0xffef10,er2
     d86:	ef 10 
     d88:	01 00 6b 82 	01 00 6b 82 ef 6c mov.l	er2,@0xef6c:16
     d8c:	ef 6c 
     d8e:	7a 02 00 ff 	7a 02 00 ff ef 61 mov.l	#0xffef61,er2
     d92:	ef 61 
     d94:	01 00 6b 82 	01 00 6b 82 ef 64 mov.l	er2,@0xef64:16
     d98:	ef 64 
     d9a:	7f ba 70 60 	7f ba 70 60       bset	#0x6,@0xba:8
     d9e:	01 00 6d 76 	01 00 6d 76       mov.l	@er7+,er6
     da2:	54 70       	54 70             rts	

00000da4 <_sci1_rx>:
     da4:	01 00 6d f6 	01 00 6d f6       mov.l	er6,@-er7
     da8:	0f f6       	0f f6             mov.l	er7,er6
     daa:	1b 97       	1b 97             subs	#0x4,er7
	...

00000dae <.L68>:
     dae:	6a 0a ef 70 	6a 0a ef 70       mov.b	@0xef70:16,r2l
     db2:	0c aa       	0c aa             mov.b	r2l,r2l
     db4:	47 f8       	47 f8             beq	.-8 (dae)
     db6:	01 00 6b 02 	01 00 6b 02 ef 6c mov.l	@0xef6c:16,er2
     dba:	ef 6c 
     dbc:	68 2a       	68 2a             mov.b	@er2,r2l
     dbe:	6e ea ff ff 	6e ea ff ff       mov.b	r2l,@(0xffff:16,er6)
     dc2:	01 00 6b 02 	01 00 6b 02 ef 6c mov.l	@0xef6c:16,er2
     dc6:	ef 6c 
     dc8:	0b 02       	0b 02             adds	#0x1,er2
     dca:	01 00 6b 82 	01 00 6b 82 ef 6c mov.l	er2,@0xef6c:16
     dce:	ef 6c 
     dd0:	01 00 6b 03 	01 00 6b 03 ef 6c mov.l	@0xef6c:16,er3
     dd4:	ef 6c 
     dd6:	01 00 6b 02 	01 00 6b 02 ef 64 mov.l	@0xef64:16,er2
     dda:	ef 64 
     ddc:	1f a3       	1f a3             cmp.l	er2,er3
     dde:	46 0c       	46 0c             bne	.+12 (dec)
     de0:	7a 02 00 ff 	7a 02 00 ff ef 10 mov.l	#0xffef10,er2
     de4:	ef 10 
     de6:	01 00 6b 82 	01 00 6b 82 ef 6c mov.l	er2,@0xef6c:16
     dea:	ef 6c 

00000dec <.L71>:
     dec:	01 00 6b 03 	01 00 6b 03 ef 6c mov.l	@0xef6c:16,er3
     df0:	ef 6c 
     df2:	01 00 6b 02 	01 00 6b 02 ef 68 mov.l	@0xef68:16,er2
     df6:	ef 68 
     df8:	1f a3       	1f a3             cmp.l	er2,er3
     dfa:	46 06       	46 06             bne	.+6 (e02)
     dfc:	18 aa       	18 aa             sub.b	r2l,r2l
     dfe:	6a 8a ef 70 	6a 8a ef 70       mov.b	r2l,@0xef70:16

00000e02 <.L72>:
     e02:	6e 6a ff ff 	6e 6a ff ff       mov.b	@(0xffff:16,er6),r2l
     e06:	17 52       	17 52             extu.w	r2
     e08:	0d 20       	0d 20             mov.w	r2,r0
     e0a:	0b 97       	0b 97             adds	#0x4,er7
     e0c:	01 00 6d 76 	01 00 6d 76       mov.l	@er7+,er6
     e10:	54 70       	54 70             rts	

00000e12 <_sci1_tx>:
     e12:	01 00 6d f6 	01 00 6d f6       mov.l	er6,@-er7
     e16:	0f f6       	0f f6             mov.l	er7,er6
     e18:	1b 97       	1b 97             subs	#0x4,er7
     e1a:	6e e8 ff ff 	6e e8 ff ff       mov.b	r0l,@(0xffff:16,er6)

00000e1e <.L74>:
     e1e:	2a bc       	2a bc             mov.b	@0xbc:8,r2l
     e20:	ea 80       	ea 80             and.b	#0x80,r2l
     e22:	0c aa       	0c aa             mov.b	r2l,r2l
     e24:	47 f8       	47 f8             beq	.-8 (e1e)
     e26:	6e 6a ff ff 	6e 6a ff ff       mov.b	@(0xffff:16,er6),r2l
     e2a:	3a bb       	3a bb             mov.b	r2l,@0xbb:8
     e2c:	7f bc 72 70 	7f bc 72 70       bclr	#0x7,@0xbc:8
     e30:	0b 97       	0b 97             adds	#0x4,er7
     e32:	01 00 6d 76 	01 00 6d 76       mov.l	@er7+,er6
     e36:	54 70       	54 70             rts	

00000e38 <_sci1_strtx>:
     e38:	01 00 6d f6 	01 00 6d f6       mov.l	er6,@-er7
     e3c:	0f f6       	0f f6             mov.l	er7,er6
     e3e:	1b 97       	1b 97             subs	#0x4,er7
     e40:	01 00 6f e0 	01 00 6f e0 ff fc mov.l	er0,@(0xfffc:16,er6)
     e44:	ff fc 

00000e46 <.L78>:
     e46:	01 00 6f 62 	01 00 6f 62 ff fc mov.l	@(0xfffc:16,er6),er2
     e4a:	ff fc 
     e4c:	68 2a       	68 2a             mov.b	@er2,r2l
     e4e:	0c aa       	0c aa             mov.b	r2l,r2l
     e50:	46 02       	46 02             bne	.+2 (e54)
     e52:	40 1a       	40 1a             bra	.+26 (e6e)

00000e54 <.L80>:
     e54:	01 00 6f 62 	01 00 6f 62 ff fc mov.l	@(0xfffc:16,er6),er2
     e58:	ff fc 
     e5a:	68 28       	68 28             mov.b	@er2,r0l
     e5c:	55 b4       	55 b4             bsr	.-76 (e12)
     e5e:	01 00 6f 62 	01 00 6f 62 ff fc mov.l	@(0xfffc:16,er6),er2
     e62:	ff fc 
     e64:	0b 02       	0b 02             adds	#0x1,er2
     e66:	01 00 6f e2 	01 00 6f e2 ff fc mov.l	er2,@(0xfffc:16,er6)
     e6a:	ff fc 
     e6c:	40 d8       	40 d8             bra	.-40 (e46)

00000e6e <.L77>:
     e6e:	0b 97       	0b 97             adds	#0x4,er7
     e70:	01 00 6d 76 	01 00 6d 76       mov.l	@er7+,er6
     e74:	54 70       	54 70             rts	

00000e76 <_sci1_strrx>:
     e76:	01 00 6d f6 	01 00 6d f6       mov.l	er6,@-er7
     e7a:	0f f6       	0f f6             mov.l	er7,er6
     e7c:	7a 17 ff ff 	7a 17 ff ff ff f4 add.l	#0xfffffff4,er7
     e80:	ff f4 
     e82:	01 00 6f e0 	01 00 6f e0 ff fc mov.l	er0,@(0xfffc:16,er6)
     e86:	ff fc 
     e88:	6f e1 ff fa 	6f e1 ff fa       mov.w	r1,@(0xfffa:16,er6)
     e8c:	18 aa       	18 aa             sub.b	r2l,r2l
     e8e:	6e ea ff f9 	6e ea ff f9       mov.b	r2l,@(0xfff9:16,er6)
     e92:	19 22       	19 22             sub.w	r2,r2
     e94:	6f e2 ff f6 	6f e2 ff f6       mov.w	r2,@(0xfff6:16,er6)

00000e98 <.L82>:
     e98:	6f 62 ff fa 	6f 62 ff fa       mov.w	@(0xfffa:16,er6),r2
     e9c:	0d 23       	0d 23             mov.w	r2,r3
     e9e:	1b 03       	1b 03             subs	#0x1,er3
     ea0:	6f 62 ff f6 	6f 62 ff f6       mov.w	@(0xfff6:16,er6),r2
     ea4:	1d 32       	1d 32             cmp.w	r3,r2
     ea6:	4c 52       	4c 52             bge	.+82 (efa)
     ea8:	6e 6a ff f9 	6e 6a ff f9       mov.b	@(0xfff9:16,er6),r2l
     eac:	aa 0d       	aa 0d             cmp.b	#0xd,r2l
     eae:	46 02       	46 02             bne	.+2 (eb2)
     eb0:	40 48       	40 48             bra	.+72 (efa)

00000eb2 <.L85>:
     eb2:	5e 00 0d a4 	5e 00 0d a4       jsr	@0xda4:0
     eb6:	0c 8a       	0c 8a             mov.b	r0l,r2l
     eb8:	6e ea ff f9 	6e ea ff f9       mov.b	r2l,@(0xfff9:16,er6)
     ebc:	6e 6a ff f9 	6e 6a ff f9       mov.b	@(0xfff9:16,er6),r2l
     ec0:	aa 0d       	aa 0d             cmp.b	#0xd,r2l
     ec2:	47 20       	47 20             beq	.+32 (ee4)
     ec4:	6e 68 ff f9 	6e 68 ff f9       mov.b	@(0xfff9:16,er6),r0l
     ec8:	5e 00 0e 12 	5e 00 0e 12       jsr	@0xe12:0
     ecc:	6f 62 ff f6 	6f 62 ff f6       mov.w	@(0xfff6:16,er6),r2
     ed0:	0d 23       	0d 23             mov.w	r2,r3
     ed2:	17 f3       	17 f3             exts.l	er3
     ed4:	01 00 6f 62 	01 00 6f 62 ff fc mov.l	@(0xfffc:16,er6),er2
     ed8:	ff fc 
     eda:	0a a3       	0a a3             add.l	er2,er3
     edc:	6e 6a ff f9 	6e 6a ff f9       mov.b	@(0xfff9:16,er6),r2l
     ee0:	68 ba       	68 ba             mov.b	r2l,@er3
     ee2:	40 0a       	40 0a             bra	.+10 (eee)

00000ee4 <.L87>:
     ee4:	6f 62 ff f6 	6f 62 ff f6       mov.w	@(0xfff6:16,er6),r2
     ee8:	1b 02       	1b 02             subs	#0x1,er2
     eea:	6f e2 ff f6 	6f e2 ff f6       mov.w	r2,@(0xfff6:16,er6)

00000eee <.L84>:
     eee:	6f 62 ff f6 	6f 62 ff f6       mov.w	@(0xfff6:16,er6),r2
     ef2:	0b 02       	0b 02             adds	#0x1,er2
     ef4:	6f e2 ff f6 	6f e2 ff f6       mov.w	r2,@(0xfff6:16,er6)
     ef8:	40 9e       	40 9e             bra	.-98 (e98)

00000efa <.L83>:
     efa:	6f 62 ff f6 	6f 62 ff f6       mov.w	@(0xfff6:16,er6),r2
     efe:	0d 23       	0d 23             mov.w	r2,r3
     f00:	17 f3       	17 f3             exts.l	er3
     f02:	01 00 6f 62 	01 00 6f 62 ff fc mov.l	@(0xfffc:16,er6),er2
     f06:	ff fc 
     f08:	0a a3       	0a a3             add.l	er2,er3
     f0a:	18 aa       	18 aa             sub.b	r2l,r2l
     f0c:	68 ba       	68 ba             mov.b	r2l,@er3
     f0e:	7a 02 00 00 	7a 02 00 00 2e 03 mov.l	#0x2e03,er2
     f12:	2e 03 
     f14:	01 00 6d f2 	01 00 6d f2       mov.l	er2,@-er7
     f18:	5e 00 06 ca 	5e 00 06 ca       jsr	@0x6ca:0
     f1c:	0b 97       	0b 97             adds	#0x4,er7
     f1e:	01 00 6f 62 	01 00 6f 62 ff fc mov.l	@(0xfffc:16,er6),er2
     f22:	ff fc 
     f24:	0f a0       	0f a0             mov.l	er2,er0
     f26:	7a 17 00 00 	7a 17 00 00 00 0c add.l	#0xc,er7
     f2a:	00 0c 
     f2c:	01 00 6d 76 	01 00 6d 76       mov.l	@er7+,er6
     f30:	54 70       	54 70             rts	

00000f32 <_sci1_sread>:
     f32:	01 00 6d f6 	01 00 6d f6       mov.l	er6,@-er7
     f36:	0f f6       	0f f6             mov.l	er7,er6
     f38:	7a 17 ff ff 	7a 17 ff ff ff f0 add.l	#0xfffffff0,er7
     f3c:	ff f0 
     f3e:	01 00 6d f4 	01 00 6d f4       mov.l	er4,@-er7
     f42:	01 00 6f e0 	01 00 6f e0 ff fc mov.l	er0,@(0xfffc:16,er6)
     f46:	ff fc 
     f48:	6f e1 ff fa 	6f e1 ff fa       mov.w	r1,@(0xfffa:16,er6)
     f4c:	6f e2 ff f8 	6f e2 ff f8       mov.w	r2,@(0xfff8:16,er6)
     f50:	01 00 6f 62 	01 00 6f 62 ff fc mov.l	@(0xfffc:16,er6),er2
     f54:	ff fc 
     f56:	01 00 6f e2 	01 00 6f e2 ff f4 mov.l	er2,@(0xfff4:16,er6)
     f5a:	ff f4 
     f5c:	1a a2       	1a a2             sub.l	er2,er2
     f5e:	01 00 6f e2 	01 00 6f e2 ff f0 mov.l	er2,@(0xfff0:16,er6)
     f62:	ff f0 

00000f64 <.L90>:
     f64:	6f 63 ff fa 	6f 63 ff fa       mov.w	@(0xfffa:16,er6),r3
     f68:	6f 62 ff f8 	6f 62 ff f8       mov.w	@(0xfff8:16,er6),r2
     f6c:	52 32       	52 32             mulxu.w	r3,er2
     f6e:	0d 23       	0d 23             mov.w	r2,r3
     f70:	17 73       	17 73             extu.l	er3
     f72:	01 00 6f 62 	01 00 6f 62 ff f0 mov.l	@(0xfff0:16,er6),er2
     f76:	ff f0 
     f78:	1f b2       	1f b2             cmp.l	er3,er2
     f7a:	45 02       	45 02             bcs	.+2 (f7e)
     f7c:	40 26       	40 26             bra	.+38 (fa4)

00000f7e <.L93>:
     f7e:	01 00 6f 63 	01 00 6f 63 ff f4 mov.l	@(0xfff4:16,er6),er3
     f82:	ff f4 
     f84:	01 00 6f 62 	01 00 6f 62 ff f0 mov.l	@(0xfff0:16,er6),er2
     f88:	ff f0 
     f8a:	0f b4       	0f b4             mov.l	er3,er4
     f8c:	0a a4       	0a a4             add.l	er2,er4
     f8e:	5e 00 0d a4 	5e 00 0d a4       jsr	@0xda4:0
     f92:	68 c8       	68 c8             mov.b	r0l,@er4
     f94:	01 00 6f 62 	01 00 6f 62 ff f0 mov.l	@(0xfff0:16,er6),er2
     f98:	ff f0 
     f9a:	0b 02       	0b 02             adds	#0x1,er2
     f9c:	01 00 6f e2 	01 00 6f e2 ff f0 mov.l	er2,@(0xfff0:16,er6)
     fa0:	ff f0 
     fa2:	40 c0       	40 c0             bra	.-64 (f64)

00000fa4 <.L91>:
     fa4:	6f 62 ff f2 	6f 62 ff f2       mov.w	@(0xfff2:16,er6),r2
     fa8:	0d 20       	0d 20             mov.w	r2,r0
     faa:	01 00 6d 74 	01 00 6d 74       mov.l	@er7+,er4
     fae:	7a 17 00 00 	7a 17 00 00 00 10 add.l	#0x10,er7
     fb2:	00 10 
     fb4:	01 00 6d 76 	01 00 6d 76       mov.l	@er7+,er6
     fb8:	54 70       	54 70             rts	

00000fba <_sci1_sreadword>:
     fba:	01 00 6d f6 	01 00 6d f6       mov.l	er6,@-er7
     fbe:	0f f6       	0f f6             mov.l	er7,er6
     fc0:	1b 97       	1b 97             subs	#0x4,er7
     fc2:	5e 00 0d a4 	5e 00 0d a4       jsr	@0xda4:0
     fc6:	0c 8a       	0c 8a             mov.b	r0l,r2l
     fc8:	17 52       	17 52             extu.w	r2
     fca:	6f e2 ff fe 	6f e2 ff fe       mov.w	r2,@(0xfffe:16,er6)
     fce:	5e 00 0d a4 	5e 00 0d a4       jsr	@0xda4:0
     fd2:	0c 8a       	0c 8a             mov.b	r0l,r2l
     fd4:	0c ab       	0c ab             mov.b	r2l,r3l
     fd6:	17 53       	17 53             extu.w	r3
     fd8:	79 02 01 00 	79 02 01 00       mov.w	#0x100,r2
     fdc:	52 23       	52 23             mulxu.w	r2,er3
     fde:	6f 62 ff fe 	6f 62 ff fe       mov.w	@(0xfffe:16,er6),r2
     fe2:	09 32       	09 32             add.w	r3,r2
     fe4:	6f e2 ff fe 	6f e2 ff fe       mov.w	r2,@(0xfffe:16,er6)
     fe8:	6f 62 ff fe 	6f 62 ff fe       mov.w	@(0xfffe:16,er6),r2
     fec:	0d 20       	0d 20             mov.w	r2,r0
     fee:	0b 97       	0b 97             adds	#0x4,er7
     ff0:	01 00 6d 76 	01 00 6d 76       mov.l	@er7+,er6
     ff4:	54 70       	54 70             rts	

00000ff6 <_sci1_sreaddword>:
     ff6:	01 00 6d f6 	01 00 6d f6       mov.l	er6,@-er7
     ffa:	0f f6       	0f f6             mov.l	er7,er6
     ffc:	1b 97       	1b 97             subs	#0x4,er7
     ffe:	5e 00 0d a4 	5e 00 0d a4       jsr	@0xda4:0
    1002:	0c 8a       	0c 8a             mov.b	r0l,r2l
    1004:	17 52       	17 52             extu.w	r2
    1006:	17 72       	17 72             extu.l	er2
    1008:	01 00 6f e2 	01 00 6f e2 ff fc mov.l	er2,@(0xfffc:16,er6)
    100c:	ff fc 
    100e:	5e 00 0d a4 	5e 00 0d a4       jsr	@0xda4:0
    1012:	0c 8a       	0c 8a             mov.b	r0l,r2l
    1014:	17 52       	17 52             extu.w	r2
    1016:	17 72       	17 72             extu.l	er2
    1018:	0f a3       	0f a3             mov.l	er2,er3
    101a:	0d b0       	0d b0             mov.w	e3,r0
    101c:	0c 80       	0c 80             mov.b	r0l,r0h
    101e:	0c 38       	0c 38             mov.b	r3h,r0l
    1020:	0c b3       	0c b3             mov.b	r3l,r3h
    1022:	18 bb       	18 bb             sub.b	r3l,r3l
    1024:	0d 0b       	0d 0b             mov.w	r0,e3
    1026:	01 00 6f 62 	01 00 6f 62 ff fc mov.l	@(0xfffc:16,er6),er2
    102a:	ff fc 
    102c:	0a b2       	0a b2             add.l	er3,er2
    102e:	01 00 6f e2 	01 00 6f e2 ff fc mov.l	er2,@(0xfffc:16,er6)
    1032:	ff fc 
    1034:	5e 00 0d a4 	5e 00 0d a4       jsr	@0xda4:0
    1038:	0c 8a       	0c 8a             mov.b	r0l,r2l
    103a:	17 52       	17 52             extu.w	r2
    103c:	17 72       	17 72             extu.l	er2
    103e:	0d 2a       	0d 2a             mov.w	r2,e2
    1040:	19 22       	19 22             sub.w	r2,r2
    1042:	01 00 6f 63 	01 00 6f 63 ff fc mov.l	@(0xfffc:16,er6),er3
    1046:	ff fc 
    1048:	0a b2       	0a b2             add.l	er3,er2
    104a:	01 00 6f e2 	01 00 6f e2 ff fc mov.l	er2,@(0xfffc:16,er6)
    104e:	ff fc 
    1050:	5e 00 0d a4 	5e 00 0d a4       jsr	@0xda4:0
    1054:	0c 8a       	0c 8a             mov.b	r0l,r2l
    1056:	17 52       	17 52             extu.w	r2
    1058:	17 72       	17 72             extu.l	er2
    105a:	0f a3       	0f a3             mov.l	er2,er3
    105c:	0c b3       	0c b3             mov.b	r3l,r3h
    105e:	18 bb       	18 bb             sub.b	r3l,r3l
    1060:	0d 3b       	0d 3b             mov.w	r3,e3
    1062:	19 33       	19 33             sub.w	r3,r3
    1064:	01 00 6f 62 	01 00 6f 62 ff fc mov.l	@(0xfffc:16,er6),er2
    1068:	ff fc 
    106a:	0a b2       	0a b2             add.l	er3,er2
    106c:	01 00 6f e2 	01 00 6f e2 ff fc mov.l	er2,@(0xfffc:16,er6)
    1070:	ff fc 
    1072:	01 00 6f 62 	01 00 6f 62 ff fc mov.l	@(0xfffc:16,er6),er2
    1076:	ff fc 
    1078:	0f a0       	0f a0             mov.l	er2,er0
    107a:	0b 97       	0b 97             adds	#0x4,er7
    107c:	01 00 6d 76 	01 00 6d 76       mov.l	@er7+,er6
    1080:	54 70       	54 70             rts	

00001082 <_execute_command>:
    1082:	01 00 6d f6 	01 00 6d f6       mov.l	er6,@-er7
    1086:	0f f6       	0f f6             mov.l	er7,er6
    1088:	7a 17 ff ff 	7a 17 ff ff ff b0 add.l	#0xffffffb0,er7
    108c:	ff b0 
    108e:	01 00 6f e0 	01 00 6f e0 ff fc mov.l	er0,@(0xfffc:16,er6)
    1092:	ff fc 
    1094:	0f e2       	0f e2             mov.l	er6,er2
    1096:	7a 12 ff ff 	7a 12 ff ff ff b4 add.l	#0xffffffb4,er2
    109a:	ff b4 
    109c:	0f e3       	0f e3             mov.l	er6,er3
    109e:	7a 13 ff ff 	7a 13 ff ff ff f6 add.l	#0xfffffff6,er3
    10a2:	ff f6 
    10a4:	0f b1       	0f b1             mov.l	er3,er1
    10a6:	01 00 6f 60 	01 00 6f 60 ff fc mov.l	@(0xfffc:16,er6),er0
    10aa:	ff fc 
    10ac:	5e 00 11 7a 	5e 00 11 7a       jsr	@0x117a:0
    10b0:	6f 62 ff f6 	6f 62 ff f6       mov.w	@(0xfff6:16,er6),r2
    10b4:	0d 22       	0d 22             mov.w	r2,r2
    10b6:	46 0a       	46 0a             bne	.+10 (10c2)
    10b8:	19 22       	19 22             sub.w	r2,r2
    10ba:	6f e2 ff b2 	6f e2 ff b2       mov.w	r2,@(0xffb2:16,er6)
    10be:	58 00 00 a8 	58 00 00 a8       bra	.+170 (116a)

000010c2 <.L2>:
    10c2:	19 22       	19 22             sub.w	r2,r2
    10c4:	6f e2 ff fa 	6f e2 ff fa       mov.w	r2,@(0xfffa:16,er6)

000010c8 <.L3>:
    10c8:	6a 0b 2e a6 	6a 0b 2e a6       mov.b	@0x2ea6:16,r3l
    10cc:	17 53       	17 53             extu.w	r3
    10ce:	6f 62 ff fa 	6f 62 ff fa       mov.w	@(0xfffa:16,er6),r2
    10d2:	1d 32       	1d 32             cmp.w	r3,r2
    10d4:	4d 02       	4d 02             blt	.+2 (10d8)
    10d6:	40 7a       	40 7a             bra	.+122 (1152)

000010d8 <.L6>:
    10d8:	6f 62 ff fa 	6f 62 ff fa       mov.w	@(0xfffa:16,er6),r2
    10dc:	17 f2       	17 f2             exts.l	er2
    10de:	10 32       	10 32             shll	er2
    10e0:	10 32       	10 32             shll	er2
    10e2:	10 32       	10 32             shll	er2
    10e4:	7a 12 00 00 	7a 12 00 00 2e 46 add.l	#0x2e46,er2
    10e8:	2e 46 
    10ea:	01 00 69 21 	01 00 69 21       mov.l	@er2,er1
    10ee:	01 00 6f 60 	01 00 6f 60 ff b4 mov.l	@(0xffb4:16,er6),er0
    10f2:	ff b4 
    10f4:	5e 00 2c fc 	5e 00 2c fc       jsr	@0x2cfc:0
    10f8:	0d 02       	0d 02             mov.w	r0,r2
    10fa:	0d 22       	0d 22             mov.w	r2,r2
    10fc:	46 46       	46 46             bne	.+70 (1144)
    10fe:	6f 62 ff fa 	6f 62 ff fa       mov.w	@(0xfffa:16,er6),r2
    1102:	17 f2       	17 f2             exts.l	er2
    1104:	10 32       	10 32             shll	er2
    1106:	10 32       	10 32             shll	er2
    1108:	10 32       	10 32             shll	er2
    110a:	7a 12 00 00 	7a 12 00 00 2e 4a add.l	#0x2e4a,er2
    110e:	2e 4a 
    1110:	0f e3       	0f e3             mov.l	er6,er3
    1112:	7a 13 ff ff 	7a 13 ff ff ff b4 add.l	#0xffffffb4,er3
    1116:	ff b4 
    1118:	01 00 69 22 	01 00 69 22       mov.l	@er2,er2
    111c:	0f b1       	0f b1             mov.l	er3,er1
    111e:	6f 60 ff f6 	6f 60 ff f6       mov.w	@(0xfff6:16,er6),r0
    1122:	5d 20       	5d 20             jsr	@er2
    1124:	0d 02       	0d 02             mov.w	r0,r2
    1126:	6f e2 ff f8 	6f e2 ff f8       mov.w	r2,@(0xfff8:16,er6)
    112a:	7a 02 00 00 	7a 02 00 00 2e a7 mov.l	#0x2ea7,er2
    112e:	2e a7 
    1130:	01 00 6d f2 	01 00 6d f2       mov.l	er2,@-er7
    1134:	5e 00 06 ca 	5e 00 06 ca       jsr	@0x6ca:0
    1138:	0b 97       	0b 97             adds	#0x4,er7
    113a:	6f 62 ff f8 	6f 62 ff f8       mov.w	@(0xfff8:16,er6),r2
    113e:	6f e2 ff b2 	6f e2 ff b2       mov.w	r2,@(0xffb2:16,er6)
    1142:	40 26       	40 26             bra	.+38 (116a)

00001144 <.L5>:
    1144:	6f 62 ff fa 	6f 62 ff fa       mov.w	@(0xfffa:16,er6),r2
    1148:	0b 02       	0b 02             adds	#0x1,er2
    114a:	6f e2 ff fa 	6f e2 ff fa       mov.w	r2,@(0xfffa:16,er6)
    114e:	58 00 ff 76 	58 00 ff 76       bra	.-136 (10c8)

00001152 <.L4>:
    1152:	7a 02 00 00 	7a 02 00 00 2e a9 mov.l	#0x2ea9,er2
    1156:	2e a9 
    1158:	01 00 6d f2 	01 00 6d f2       mov.l	er2,@-er7
    115c:	5e 00 06 ca 	5e 00 06 ca       jsr	@0x6ca:0
    1160:	0b 97       	0b 97             adds	#0x4,er7
    1162:	79 02 00 01 	79 02 00 01       mov.w	#0x1,r2
    1166:	6f e2 ff b2 	6f e2 ff b2       mov.w	r2,@(0xffb2:16,er6)

0000116a <.L1>:
    116a:	6f 60 ff b2 	6f 60 ff b2       mov.w	@(0xffb2:16,er6),r0
    116e:	7a 17 00 00 	7a 17 00 00 00 50 add.l	#0x50,er7
    1172:	00 50 
    1174:	01 00 6d 76 	01 00 6d 76       mov.l	@er7+,er6
    1178:	54 70       	54 70             rts	

0000117a <_commandline_deployment>:
    117a:	01 00 6d f6 	01 00 6d f6       mov.l	er6,@-er7
    117e:	0f f6       	0f f6             mov.l	er7,er6
    1180:	7a 17 ff ff 	7a 17 ff ff ff ec add.l	#0xffffffec,er7
    1184:	ff ec 
    1186:	01 00 6d f4 	01 00 6d f4       mov.l	er4,@-er7
    118a:	01 00 6f e0 	01 00 6f e0 ff fc mov.l	er0,@(0xfffc:16,er6)
    118e:	ff fc 
    1190:	01 00 6f e1 	01 00 6f e1 ff f8 mov.l	er1,@(0xfff8:16,er6)
    1194:	ff f8 
    1196:	01 00 6f e2 	01 00 6f e2 ff f4 mov.l	er2,@(0xfff4:16,er6)
    119a:	ff f4 
    119c:	01 00 6f 60 	01 00 6f 60 ff fc mov.l	@(0xfffc:16,er6),er0
    11a0:	ff fc 
    11a2:	5e 00 2c a2 	5e 00 2c a2       jsr	@0x2ca2:0
    11a6:	0f 82       	0f 82             mov.l	er0,er2
    11a8:	6f e2 ff ec 	6f e2 ff ec       mov.w	r2,@(0xffec:16,er6)
    11ac:	19 22       	19 22             sub.w	r2,r2
    11ae:	6f e2 ff f2 	6f e2 ff f2       mov.w	r2,@(0xfff2:16,er6)

000011b2 <.L9>:
    11b2:	6f 62 ff f2 	6f 62 ff f2       mov.w	@(0xfff2:16,er6),r2
    11b6:	0d 23       	0d 23             mov.w	r2,r3
    11b8:	17 f3       	17 f3             exts.l	er3
    11ba:	01 00 6f 62 	01 00 6f 62 ff fc mov.l	@(0xfffc:16,er6),er2
    11be:	ff fc 
    11c0:	0a b2       	0a b2             add.l	er3,er2
    11c2:	68 2a       	68 2a             mov.b	@er2,r2l
    11c4:	0c aa       	0c aa             mov.b	r2l,r2l
    11c6:	46 04       	46 04             bne	.+4 (11cc)
    11c8:	58 00 01 4c 	58 00 01 4c       bra	.+334 (1318)

000011cc <.L12>:
    11cc:	6f 62 ff f2 	6f 62 ff f2       mov.w	@(0xfff2:16,er6),r2
    11d0:	0d 23       	0d 23             mov.w	r2,r3
    11d2:	17 f3       	17 f3             exts.l	er3
    11d4:	01 00 6f 62 	01 00 6f 62 ff fc mov.l	@(0xfffc:16,er6),er2
    11d8:	ff fc 
    11da:	0a b2       	0a b2             add.l	er3,er2
    11dc:	68 2a       	68 2a             mov.b	@er2,r2l
    11de:	aa 08       	aa 08             cmp.b	#0x8,r2l
    11e0:	58 60 00 a2 	58 60 00 a2       bne	.+164 (1286)
    11e4:	19 22       	19 22             sub.w	r2,r2
    11e6:	6f e2 ff ee 	6f e2 ff ee       mov.w	r2,@(0xffee:16,er6)
    11ea:	6f 62 ff f2 	6f 62 ff f2       mov.w	@(0xfff2:16,er6),r2
    11ee:	0d 22       	0d 22             mov.w	r2,r2
    11f0:	47 08       	47 08             beq	.+8 (11fa)
    11f2:	79 02 00 01 	79 02 00 01       mov.w	#0x1,r2
    11f6:	6f e2 ff ee 	6f e2 ff ee       mov.w	r2,@(0xffee:16,er6)

000011fa <.L14>:
    11fa:	6f 62 ff ee 	6f 62 ff ee       mov.w	@(0xffee:16,er6),r2
    11fe:	6f 63 ff f2 	6f 63 ff f2       mov.w	@(0xfff2:16,er6),r3
    1202:	19 23       	19 23             sub.w	r2,r3
    1204:	0d 32       	0d 32             mov.w	r3,r2
    1206:	6f e2 ff f0 	6f e2 ff f0       mov.w	r2,@(0xfff0:16,er6)

0000120a <.L15>:
    120a:	6f 62 ff ee 	6f 62 ff ee       mov.w	@(0xffee:16,er6),r2
    120e:	6f 63 ff ec 	6f 63 ff ec       mov.w	@(0xffec:16,er6),r3
    1212:	19 23       	19 23             sub.w	r2,r3
    1214:	0d 32       	0d 32             mov.w	r3,r2
    1216:	0d 23       	0d 23             mov.w	r2,r3
    1218:	1b 03       	1b 03             subs	#0x1,er3
    121a:	6f 62 ff f0 	6f 62 ff f0       mov.w	@(0xfff0:16,er6),r2
    121e:	1d 32       	1d 32             cmp.w	r3,r2
    1220:	4f 02       	4f 02             ble	.+2 (1224)
    1222:	40 3a       	40 3a             bra	.+58 (125e)

00001224 <.L18>:
    1224:	6f 62 ff f0 	6f 62 ff f0       mov.w	@(0xfff0:16,er6),r2
    1228:	0d 23       	0d 23             mov.w	r2,r3
    122a:	17 f3       	17 f3             exts.l	er3
    122c:	01 00 6f 62 	01 00 6f 62 ff fc mov.l	@(0xfffc:16,er6),er2
    1230:	ff fc 
    1232:	0f b0       	0f b0             mov.l	er3,er0
    1234:	0a a0       	0a a0             add.l	er2,er0
    1236:	6f 63 ff f0 	6f 63 ff f0       mov.w	@(0xfff0:16,er6),r3
    123a:	6f 62 ff ee 	6f 62 ff ee       mov.w	@(0xffee:16,er6),r2
    123e:	09 32       	09 32             add.w	r3,r2
    1240:	0d 23       	0d 23             mov.w	r2,r3
    1242:	17 f3       	17 f3             exts.l	er3
    1244:	01 00 6f 62 	01 00 6f 62 ff fc mov.l	@(0xfffc:16,er6),er2
    1248:	ff fc 
    124a:	0a b2       	0a b2             add.l	er3,er2
    124c:	0b 02       	0b 02             adds	#0x1,er2
    124e:	68 2a       	68 2a             mov.b	@er2,r2l
    1250:	68 8a       	68 8a             mov.b	r2l,@er0
    1252:	6f 62 ff f0 	6f 62 ff f0       mov.w	@(0xfff0:16,er6),r2
    1256:	0b 02       	0b 02             adds	#0x1,er2
    1258:	6f e2 ff f0 	6f e2 ff f0       mov.w	r2,@(0xfff0:16,er6)
    125c:	40 ac       	40 ac             bra	.-84 (120a)

0000125e <.L16>:
    125e:	6f 62 ff ee 	6f 62 ff ee       mov.w	@(0xffee:16,er6),r2
    1262:	6f 63 ff ec 	6f 63 ff ec       mov.w	@(0xffec:16,er6),r3
    1266:	19 23       	19 23             sub.w	r2,r3
    1268:	0d 32       	0d 32             mov.w	r3,r2
    126a:	1b 02       	1b 02             subs	#0x1,er2
    126c:	6f e2 ff ec 	6f e2 ff ec       mov.w	r2,@(0xffec:16,er6)
    1270:	6f 62 ff ee 	6f 62 ff ee       mov.w	@(0xffee:16,er6),r2
    1274:	6f 63 ff f2 	6f 63 ff f2       mov.w	@(0xfff2:16,er6),r3
    1278:	19 23       	19 23             sub.w	r2,r3
    127a:	0d 32       	0d 32             mov.w	r3,r2
    127c:	1b 02       	1b 02             subs	#0x1,er2
    127e:	6f e2 ff f2 	6f e2 ff f2       mov.w	r2,@(0xfff2:16,er6)
    1282:	58 00 00 84 	58 00 00 84       bra	.+134 (130a)

00001286 <.L13>:
    1286:	6f 62 ff f2 	6f 62 ff f2       mov.w	@(0xfff2:16,er6),r2
    128a:	0d 23       	0d 23             mov.w	r2,r3
    128c:	17 f3       	17 f3             exts.l	er3
    128e:	01 00 6f 62 	01 00 6f 62 ff fc mov.l	@(0xfffc:16,er6),er2
    1292:	ff fc 
    1294:	0a b2       	0a b2             add.l	er3,er2
    1296:	68 2a       	68 2a             mov.b	@er2,r2l
    1298:	0c aa       	0c aa             mov.b	r2l,r2l
    129a:	47 6e       	47 6e             beq	.+110 (130a)
    129c:	6f 62 ff f2 	6f 62 ff f2       mov.w	@(0xfff2:16,er6),r2
    12a0:	0d 23       	0d 23             mov.w	r2,r3
    12a2:	17 f3       	17 f3             exts.l	er3
    12a4:	01 00 6f 62 	01 00 6f 62 ff fc mov.l	@(0xfffc:16,er6),er2
    12a8:	ff fc 
    12aa:	0a b2       	0a b2             add.l	er3,er2
    12ac:	68 2a       	68 2a             mov.b	@er2,r2l
    12ae:	aa 1f       	aa 1f             cmp.b	#0x1f,r2l
    12b0:	42 58       	42 58             bhi	.+88 (130a)
    12b2:	6f 62 ff f2 	6f 62 ff f2       mov.w	@(0xfff2:16,er6),r2
    12b6:	6f e2 ff f0 	6f e2 ff f0       mov.w	r2,@(0xfff0:16,er6)

000012ba <.L21>:
    12ba:	6f 62 ff ec 	6f 62 ff ec       mov.w	@(0xffec:16,er6),r2
    12be:	0d 23       	0d 23             mov.w	r2,r3
    12c0:	1b 03       	1b 03             subs	#0x1,er3
    12c2:	6f 62 ff f0 	6f 62 ff f0       mov.w	@(0xfff0:16,er6),r2
    12c6:	1d 32       	1d 32             cmp.w	r3,r2
    12c8:	4f 02       	4f 02             ble	.+2 (12cc)
    12ca:	40 34       	40 34             bra	.+52 (1300)

000012cc <.L24>:
    12cc:	6f 62 ff f0 	6f 62 ff f0       mov.w	@(0xfff0:16,er6),r2
    12d0:	0d 23       	0d 23             mov.w	r2,r3
    12d2:	17 f3       	17 f3             exts.l	er3
    12d4:	01 00 6f 62 	01 00 6f 62 ff fc mov.l	@(0xfffc:16,er6),er2
    12d8:	ff fc 
    12da:	0f b0       	0f b0             mov.l	er3,er0
    12dc:	0a a0       	0a a0             add.l	er2,er0
    12de:	6f 62 ff f0 	6f 62 ff f0       mov.w	@(0xfff0:16,er6),r2
    12e2:	0d 23       	0d 23             mov.w	r2,r3
    12e4:	17 f3       	17 f3             exts.l	er3
    12e6:	01 00 6f 62 	01 00 6f 62 ff fc mov.l	@(0xfffc:16,er6),er2
    12ea:	ff fc 
    12ec:	0a b2       	0a b2             add.l	er3,er2
    12ee:	0b 02       	0b 02             adds	#0x1,er2
    12f0:	68 2a       	68 2a             mov.b	@er2,r2l
    12f2:	68 8a       	68 8a             mov.b	r2l,@er0
    12f4:	6f 62 ff f0 	6f 62 ff f0       mov.w	@(0xfff0:16,er6),r2
    12f8:	0b 02       	0b 02             adds	#0x1,er2
    12fa:	6f e2 ff f0 	6f e2 ff f0       mov.w	r2,@(0xfff0:16,er6)
    12fe:	40 ba       	40 ba             bra	.-70 (12ba)

00001300 <.L22>:
    1300:	6f 62 ff f2 	6f 62 ff f2       mov.w	@(0xfff2:16,er6),r2
    1304:	1b 02       	1b 02             subs	#0x1,er2
    1306:	6f e2 ff f2 	6f e2 ff f2       mov.w	r2,@(0xfff2:16,er6)

0000130a <.L11>:
    130a:	6f 62 ff f2 	6f 62 ff f2       mov.w	@(0xfff2:16,er6),r2
    130e:	0b 02       	0b 02             adds	#0x1,er2
    1310:	6f e2 ff f2 	6f e2 ff f2       mov.w	r2,@(0xfff2:16,er6)
    1314:	58 00 fe 9a 	58 00 fe 9a       bra	.-356 (11b2)

00001318 <.L10>:
    1318:	01 00 6f 62 	01 00 6f 62 ff f8 mov.l	@(0xfff8:16,er6),er2
    131c:	ff f8 
    131e:	19 33       	19 33             sub.w	r3,r3
    1320:	69 a3       	69 a3             mov.w	r3,@er2
    1322:	19 22       	19 22             sub.w	r2,r2
    1324:	6f e2 ff f2 	6f e2 ff f2       mov.w	r2,@(0xfff2:16,er6)

00001328 <.L25>:
    1328:	6f 62 ff f2 	6f 62 ff f2       mov.w	@(0xfff2:16,er6),r2
    132c:	0d 23       	0d 23             mov.w	r2,r3
    132e:	17 f3       	17 f3             exts.l	er3
    1330:	01 00 6f 62 	01 00 6f 62 ff fc mov.l	@(0xfffc:16,er6),er2
    1334:	ff fc 
    1336:	0a b2       	0a b2             add.l	er3,er2
    1338:	68 2a       	68 2a             mov.b	@er2,r2l
    133a:	0c aa       	0c aa             mov.b	r2l,r2l
    133c:	46 04       	46 04             bne	.+4 (1342)
    133e:	58 00 00 f0 	58 00 00 f0       bra	.+242 (1432)

00001342 <.L28>:
    1342:	6f 62 ff f2 	6f 62 ff f2       mov.w	@(0xfff2:16,er6),r2
    1346:	0d 23       	0d 23             mov.w	r2,r3
    1348:	17 f3       	17 f3             exts.l	er3
    134a:	01 00 6f 62 	01 00 6f 62 ff fc mov.l	@(0xfffc:16,er6),er2
    134e:	ff fc 
    1350:	0a b2       	0a b2             add.l	er3,er2
    1352:	68 2a       	68 2a             mov.b	@er2,r2l
    1354:	aa 20       	aa 20             cmp.b	#0x20,r2l
    1356:	46 38       	46 38             bne	.+56 (1390)
    1358:	6f 62 ff f2 	6f 62 ff f2       mov.w	@(0xfff2:16,er6),r2
    135c:	0d 23       	0d 23             mov.w	r2,r3
    135e:	17 f3       	17 f3             exts.l	er3
    1360:	01 00 6f 62 	01 00 6f 62 ff fc mov.l	@(0xfffc:16,er6),er2
    1364:	ff fc 
    1366:	0a b2       	0a b2             add.l	er3,er2
    1368:	68 2a       	68 2a             mov.b	@er2,r2l
    136a:	0c aa       	0c aa             mov.b	r2l,r2l
    136c:	46 02       	46 02             bne	.+2 (1370)
    136e:	40 20       	40 20             bra	.+32 (1390)

00001370 <.L30>:
    1370:	6f 62 ff f2 	6f 62 ff f2       mov.w	@(0xfff2:16,er6),r2
    1374:	0d 23       	0d 23             mov.w	r2,r3
    1376:	17 f3       	17 f3             exts.l	er3
    1378:	01 00 6f 62 	01 00 6f 62 ff fc mov.l	@(0xfffc:16,er6),er2
    137c:	ff fc 
    137e:	0a a3       	0a a3             add.l	er2,er3
    1380:	18 aa       	18 aa             sub.b	r2l,r2l
    1382:	68 ba       	68 ba             mov.b	r2l,@er3
    1384:	6f 62 ff f2 	6f 62 ff f2       mov.w	@(0xfff2:16,er6),r2
    1388:	0b 02       	0b 02             adds	#0x1,er2
    138a:	6f e2 ff f2 	6f e2 ff f2       mov.w	r2,@(0xfff2:16,er6)
    138e:	40 b2       	40 b2             bra	.-78 (1342)

00001390 <.L29>:
    1390:	6f 62 ff f2 	6f 62 ff f2       mov.w	@(0xfff2:16,er6),r2
    1394:	0d 23       	0d 23             mov.w	r2,r3
    1396:	17 f3       	17 f3             exts.l	er3
    1398:	01 00 6f 62 	01 00 6f 62 ff fc mov.l	@(0xfffc:16,er6),er2
    139c:	ff fc 
    139e:	0a b2       	0a b2             add.l	er3,er2
    13a0:	68 2a       	68 2a             mov.b	@er2,r2l
    13a2:	0c aa       	0c aa             mov.b	r2l,r2l
    13a4:	47 4c       	47 4c             beq	.+76 (13f2)
    13a6:	01 00 6f 62 	01 00 6f 62 ff f8 mov.l	@(0xfff8:16,er6),er2
    13aa:	ff f8 
    13ac:	69 22       	69 22             mov.w	@er2,r2
    13ae:	79 22 00 0f 	79 22 00 0f       cmp.w	#0xf,r2
    13b2:	4e 34       	4e 34             bgt	.+52 (13e8)
    13b4:	01 00 6f 62 	01 00 6f 62 ff f8 mov.l	@(0xfff8:16,er6),er2
    13b8:	ff f8 
    13ba:	0f a4       	0f a4             mov.l	er2,er4
    13bc:	69 40       	69 40             mov.w	@er4,r0
    13be:	0d 02       	0d 02             mov.w	r0,r2
    13c0:	17 f2       	17 f2             exts.l	er2
    13c2:	10 32       	10 32             shll	er2
    13c4:	10 32       	10 32             shll	er2
    13c6:	01 00 6f 63 	01 00 6f 63 ff f4 mov.l	@(0xfff4:16,er6),er3
    13ca:	ff f4 
    13cc:	0f a1       	0f a1             mov.l	er2,er1
    13ce:	0a b1       	0a b1             add.l	er3,er1
    13d0:	6f 62 ff f2 	6f 62 ff f2       mov.w	@(0xfff2:16,er6),r2
    13d4:	0d 23       	0d 23             mov.w	r2,r3
    13d6:	17 f3       	17 f3             exts.l	er3
    13d8:	01 00 6f 62 	01 00 6f 62 ff fc mov.l	@(0xfffc:16,er6),er2
    13dc:	ff fc 
    13de:	0a b2       	0a b2             add.l	er3,er2
    13e0:	01 00 69 92 	01 00 69 92       mov.l	er2,@er1
    13e4:	0b 00       	0b 00             adds	#0x1,er0
    13e6:	69 c0       	69 c0             mov.w	r0,@er4

000013e8 <.L33>:
    13e8:	6f 62 ff f2 	6f 62 ff f2       mov.w	@(0xfff2:16,er6),r2
    13ec:	0b 02       	0b 02             adds	#0x1,er2
    13ee:	6f e2 ff f2 	6f e2 ff f2       mov.w	r2,@(0xfff2:16,er6)

000013f2 <.L32>:
	...

000013f4 <.L34>:
    13f4:	6f 62 ff f2 	6f 62 ff f2       mov.w	@(0xfff2:16,er6),r2
    13f8:	0d 23       	0d 23             mov.w	r2,r3
    13fa:	17 f3       	17 f3             exts.l	er3
    13fc:	01 00 6f 62 	01 00 6f 62 ff fc mov.l	@(0xfffc:16,er6),er2
    1400:	ff fc 
    1402:	0a b2       	0a b2             add.l	er3,er2
    1404:	68 2a       	68 2a             mov.b	@er2,r2l
    1406:	aa 20       	aa 20             cmp.b	#0x20,r2l
    1408:	58 70 ff 1c 	58 70 ff 1c       beq	.-226 (1328)
    140c:	6f 62 ff f2 	6f 62 ff f2       mov.w	@(0xfff2:16,er6),r2
    1410:	0d 23       	0d 23             mov.w	r2,r3
    1412:	17 f3       	17 f3             exts.l	er3
    1414:	01 00 6f 62 	01 00 6f 62 ff fc mov.l	@(0xfffc:16,er6),er2
    1418:	ff fc 
    141a:	0a b2       	0a b2             add.l	er3,er2
    141c:	68 2a       	68 2a             mov.b	@er2,r2l
    141e:	0c aa       	0c aa             mov.b	r2l,r2l
    1420:	46 04       	46 04             bne	.+4 (1426)
    1422:	58 00 ff 02 	58 00 ff 02       bra	.-252 (1328)

00001426 <.L36>:
    1426:	6f 62 ff f2 	6f 62 ff f2       mov.w	@(0xfff2:16,er6),r2
    142a:	0b 02       	0b 02             adds	#0x1,er2
    142c:	6f e2 ff f2 	6f e2 ff f2       mov.w	r2,@(0xfff2:16,er6)
    1430:	40 c2       	40 c2             bra	.-62 (13f4)

00001432 <.L26>:
    1432:	01 00 6f 62 	01 00 6f 62 ff f8 mov.l	@(0xfff8:16,er6),er2
    1436:	ff f8 
    1438:	69 22       	69 22             mov.w	@er2,r2
    143a:	0d 20       	0d 20             mov.w	r2,r0
    143c:	01 00 6d 74 	01 00 6d 74       mov.l	@er7+,er4
    1440:	7a 17 00 00 	7a 17 00 00 00 14 add.l	#0x14,er7
    1444:	00 14 
    1446:	01 00 6d 76 	01 00 6d 76       mov.l	@er7+,er6
    144a:	54 70       	54 70             rts	

0000144c <_cmd_dump>:
    144c:	01 00 6d f6 	01 00 6d f6       mov.l	er6,@-er7
    1450:	0f f6       	0f f6             mov.l	er7,er6
    1452:	1b 97       	1b 97             subs	#0x4,er7
    1454:	1b 97       	1b 97             subs	#0x4,er7
    1456:	6f e0 ff fe 	6f e0 ff fe       mov.w	r0,@(0xfffe:16,er6)
    145a:	01 00 6f e1 	01 00 6f e1 ff f8 mov.l	er1,@(0xfff8:16,er6)
    145e:	ff f8 
    1460:	7a 00 00 ff 	7a 00 00 ff f1 70 mov.l	#0xfff170,er0
    1464:	f1 70 
    1466:	5e 00 1b 6e 	5e 00 1b 6e       jsr	@0x1b6e:0
    146a:	7a 02 00 00 	7a 02 00 00 2e be mov.l	#0x2ebe,er2
    146e:	2e be 
    1470:	01 00 6d f2 	01 00 6d f2       mov.l	er2,@-er7
    1474:	5e 00 06 ca 	5e 00 06 ca       jsr	@0x6ca:0
    1478:	0b 97       	0b 97             adds	#0x4,er7
    147a:	19 22       	19 22             sub.w	r2,r2
    147c:	0d 20       	0d 20             mov.w	r2,r0
    147e:	0b 97       	0b 97             adds	#0x4,er7
    1480:	0b 97       	0b 97             adds	#0x4,er7
    1482:	01 00 6d 76 	01 00 6d 76       mov.l	@er7+,er6
    1486:	54 70       	54 70             rts	

00001488 <_cmd_exit>:
    1488:	01 00 6d f6 	01 00 6d f6       mov.l	er6,@-er7
    148c:	0f f6       	0f f6             mov.l	er7,er6
    148e:	1b 97       	1b 97             subs	#0x4,er7
    1490:	1b 97       	1b 97             subs	#0x4,er7
    1492:	6f e0 ff fe 	6f e0 ff fe       mov.w	r0,@(0xfffe:16,er6)
    1496:	01 00 6f e1 	01 00 6f e1 ff f8 mov.l	er1,@(0xfff8:16,er6)
    149a:	ff f8 
    149c:	7a 02 00 00 	7a 02 00 00 2e c6 mov.l	#0x2ec6,er2
    14a0:	2e c6 
    14a2:	01 00 6d f2 	01 00 6d f2       mov.l	er2,@-er7
    14a6:	5e 00 06 ca 	5e 00 06 ca       jsr	@0x6ca:0
    14aa:	0b 97       	0b 97             adds	#0x4,er7
    14ac:	19 00       	19 00             sub.w	r0,r0
    14ae:	5e 00 1f 5a 	5e 00 1f 5a       jsr	@0x1f5a:0

000014b2 <_cmd_help>:
    14b2:	01 00 6d f6 	01 00 6d f6       mov.l	er6,@-er7
    14b6:	0f f6       	0f f6             mov.l	er7,er6
    14b8:	1b 97       	1b 97             subs	#0x4,er7
    14ba:	1b 97       	1b 97             subs	#0x4,er7
    14bc:	6f e0 ff fe 	6f e0 ff fe       mov.w	r0,@(0xfffe:16,er6)
    14c0:	01 00 6f e1 	01 00 6f e1 ff f8 mov.l	er1,@(0xfff8:16,er6)
    14c4:	ff f8 
    14c6:	19 22       	19 22             sub.w	r2,r2
    14c8:	0d 20       	0d 20             mov.w	r2,r0
    14ca:	0b 97       	0b 97             adds	#0x4,er7
    14cc:	0b 97       	0b 97             adds	#0x4,er7
    14ce:	01 00 6d 76 	01 00 6d 76       mov.l	@er7+,er6
    14d2:	54 70       	54 70             rts	

000014d4 <_cmd_read>:
    14d4:	01 00 6d f6 	01 00 6d f6       mov.l	er6,@-er7
    14d8:	0f f6       	0f f6             mov.l	er7,er6
    14da:	7a 17 ff ff 	7a 17 ff ff ff f4 add.l	#0xfffffff4,er7
    14de:	ff f4 
    14e0:	6f e0 ff fe 	6f e0 ff fe       mov.w	r0,@(0xfffe:16,er6)
    14e4:	01 00 6f e1 	01 00 6f e1 ff f8 mov.l	er1,@(0xfff8:16,er6)
    14e8:	ff f8 
    14ea:	7a 02 00 00 	7a 02 00 00 2e de mov.l	#0x2ede,er2
    14ee:	2e de 
    14f0:	01 00 6d f2 	01 00 6d f2       mov.l	er2,@-er7
    14f4:	5e 00 06 ca 	5e 00 06 ca       jsr	@0x6ca:0
    14f8:	0b 97       	0b 97             adds	#0x4,er7
    14fa:	7a 00 00 ff 	7a 00 00 ff f1 70 mov.l	#0xfff170,er0
    14fe:	f1 70 
    1500:	5e 00 19 16 	5e 00 19 16       jsr	@0x1916:0
    1504:	0d 02       	0d 02             mov.w	r0,r2
    1506:	6f e2 ff f6 	6f e2 ff f6       mov.w	r2,@(0xfff6:16,er6)
    150a:	6f 62 ff f6 	6f 62 ff f6       mov.w	@(0xfff6:16,er6),r2
    150e:	0d 22       	0d 22             mov.w	r2,r2
    1510:	46 12       	46 12             bne	.+18 (1524)
    1512:	7a 02 00 00 	7a 02 00 00 2e be mov.l	#0x2ebe,er2
    1516:	2e be 
    1518:	01 00 6d f2 	01 00 6d f2       mov.l	er2,@-er7
    151c:	5e 00 06 ca 	5e 00 06 ca       jsr	@0x6ca:0
    1520:	0b 97       	0b 97             adds	#0x4,er7
    1522:	40 1a       	40 1a             bra	.+26 (153e)

00001524 <.L5>:
    1524:	6f 62 ff f6 	6f 62 ff f6       mov.w	@(0xfff6:16,er6),r2
    1528:	01 00 6d f2 	01 00 6d f2       mov.l	er2,@-er7
    152c:	7a 02 00 00 	7a 02 00 00 2e f1 mov.l	#0x2ef1,er2
    1530:	2e f1 
    1532:	01 00 6d f2 	01 00 6d f2       mov.l	er2,@-er7
    1536:	5e 00 06 ca 	5e 00 06 ca       jsr	@0x6ca:0
    153a:	0b 97       	0b 97             adds	#0x4,er7
    153c:	0b 97       	0b 97             adds	#0x4,er7

0000153e <.L6>:
    153e:	6f 62 ff f6 	6f 62 ff f6       mov.w	@(0xfff6:16,er6),r2
    1542:	0d 20       	0d 20             mov.w	r2,r0
    1544:	7a 17 00 00 	7a 17 00 00 00 0c add.l	#0xc,er7
    1548:	00 0c 
    154a:	01 00 6d 76 	01 00 6d 76       mov.l	@er7+,er6
    154e:	54 70       	54 70             rts	

00001550 <_cmd_run>:
    1550:	01 00 6d f6 	01 00 6d f6       mov.l	er6,@-er7
    1554:	0f f6       	0f f6             mov.l	er7,er6
    1556:	1b 97       	1b 97             subs	#0x4,er7
    1558:	1b 97       	1b 97             subs	#0x4,er7
    155a:	6f e0 ff fe 	6f e0 ff fe       mov.w	r0,@(0xfffe:16,er6)
    155e:	01 00 6f e1 	01 00 6f e1 ff f8 mov.l	er1,@(0xfff8:16,er6)
    1562:	ff f8 
    1564:	7a 02 00 00 	7a 02 00 00 2e fd mov.l	#0x2efd,er2
    1568:	2e fd 
    156a:	01 00 6d f2 	01 00 6d f2       mov.l	er2,@-er7
    156e:	5e 00 06 ca 	5e 00 06 ca       jsr	@0x6ca:0
    1572:	0b 97       	0b 97             adds	#0x4,er7
    1574:	19 22       	19 22             sub.w	r2,r2
    1576:	0d 20       	0d 20             mov.w	r2,r0
    1578:	0b 97       	0b 97             adds	#0x4,er7
    157a:	0b 97       	0b 97             adds	#0x4,er7
    157c:	01 00 6d 76 	01 00 6d 76       mov.l	@er7+,er6
    1580:	54 70       	54 70             rts	

00001582 <_cmd_sync>:
    1582:	01 00 6d f6 	01 00 6d f6       mov.l	er6,@-er7
    1586:	0f f6       	0f f6             mov.l	er7,er6
    1588:	1b 97       	1b 97             subs	#0x4,er7
    158a:	1b 97       	1b 97             subs	#0x4,er7
    158c:	6f e0 ff fe 	6f e0 ff fe       mov.w	r0,@(0xfffe:16,er6)
    1590:	01 00 6f e1 	01 00 6f e1 ff f8 mov.l	er1,@(0xfff8:16,er6)
    1594:	ff f8 
    1596:	6b 02 ff 74 	6b 02 ff 74       mov.w	@0xff74:16,r2
    159a:	01 00 6d f2 	01 00 6d f2       mov.l	er2,@-er7
    159e:	7a 02 00 00 	7a 02 00 00 2f 04 mov.l	#0x2f04,er2
    15a2:	2f 04 
    15a4:	01 00 6d f2 	01 00 6d f2       mov.l	er2,@-er7
    15a8:	5e 00 06 ca 	5e 00 06 ca       jsr	@0x6ca:0
    15ac:	0b 97       	0b 97             adds	#0x4,er7
    15ae:	0b 97       	0b 97             adds	#0x4,er7
    15b0:	7a 02 00 00 	7a 02 00 00 2e fd mov.l	#0x2efd,er2
    15b4:	2e fd 
    15b6:	01 00 6d f2 	01 00 6d f2       mov.l	er2,@-er7
    15ba:	5e 00 06 ca 	5e 00 06 ca       jsr	@0x6ca:0
    15be:	0b 97       	0b 97             adds	#0x4,er7
    15c0:	19 22       	19 22             sub.w	r2,r2
    15c2:	0d 20       	0d 20             mov.w	r2,r0
    15c4:	0b 97       	0b 97             adds	#0x4,er7
    15c6:	0b 97       	0b 97             adds	#0x4,er7
    15c8:	01 00 6d 76 	01 00 6d 76       mov.l	@er7+,er6
    15cc:	54 70       	54 70             rts	

000015ce <_cmd_lock>:
    15ce:	01 00 6d f6 	01 00 6d f6       mov.l	er6,@-er7
    15d2:	0f f6       	0f f6             mov.l	er7,er6
    15d4:	1b 97       	1b 97             subs	#0x4,er7
    15d6:	1b 97       	1b 97             subs	#0x4,er7
    15d8:	6f e0 ff fe 	6f e0 ff fe       mov.w	r0,@(0xfffe:16,er6)
    15dc:	01 00 6f e1 	01 00 6f e1 ff f8 mov.l	er1,@(0xfff8:16,er6)
    15e0:	ff f8 
    15e2:	18 aa       	18 aa             sub.b	r2l,r2l
    15e4:	6a 8a f1 4d 	6a 8a f1 4d       mov.b	r2l,@0xf14d:16
    15e8:	7a 02 00 00 	7a 02 00 00 2e fd mov.l	#0x2efd,er2
    15ec:	2e fd 
    15ee:	01 00 6d f2 	01 00 6d f2       mov.l	er2,@-er7
    15f2:	5e 00 06 ca 	5e 00 06 ca       jsr	@0x6ca:0
    15f6:	0b 97       	0b 97             adds	#0x4,er7
    15f8:	19 22       	19 22             sub.w	r2,r2
    15fa:	0d 20       	0d 20             mov.w	r2,r0
    15fc:	0b 97       	0b 97             adds	#0x4,er7
    15fe:	0b 97       	0b 97             adds	#0x4,er7
    1600:	01 00 6d 76 	01 00 6d 76       mov.l	@er7+,er6
    1604:	54 70       	54 70             rts	

00001606 <_cmd_unlock>:
    1606:	01 00 6d f6 	01 00 6d f6       mov.l	er6,@-er7
    160a:	0f f6       	0f f6             mov.l	er7,er6
    160c:	1b 97       	1b 97             subs	#0x4,er7
    160e:	1b 97       	1b 97             subs	#0x4,er7
    1610:	6f e0 ff fe 	6f e0 ff fe       mov.w	r0,@(0xfffe:16,er6)
    1614:	01 00 6f e1 	01 00 6f e1 ff f8 mov.l	er1,@(0xfff8:16,er6)
    1618:	ff f8 
    161a:	fa 01       	fa 01             mov.b	#0x1,r2l
    161c:	6a 8a f1 4d 	6a 8a f1 4d       mov.b	r2l,@0xf14d:16
    1620:	7a 02 00 00 	7a 02 00 00 2e fd mov.l	#0x2efd,er2
    1624:	2e fd 
    1626:	01 00 6d f2 	01 00 6d f2       mov.l	er2,@-er7
    162a:	5e 00 06 ca 	5e 00 06 ca       jsr	@0x6ca:0
    162e:	0b 97       	0b 97             adds	#0x4,er7
    1630:	19 22       	19 22             sub.w	r2,r2
    1632:	0d 20       	0d 20             mov.w	r2,r0
    1634:	0b 97       	0b 97             adds	#0x4,er7
    1636:	0b 97       	0b 97             adds	#0x4,er7
    1638:	01 00 6d 76 	01 00 6d 76       mov.l	@er7+,er6
    163c:	54 70       	54 70             rts	

0000163e <_cmd_power>:
    163e:	01 00 6d f6 	01 00 6d f6       mov.l	er6,@-er7
    1642:	0f f6       	0f f6             mov.l	er7,er6
    1644:	1b 97       	1b 97             subs	#0x4,er7
    1646:	1b 97       	1b 97             subs	#0x4,er7
    1648:	6f e0 ff fe 	6f e0 ff fe       mov.w	r0,@(0xfffe:16,er6)
    164c:	01 00 6f e1 	01 00 6f e1 ff f8 mov.l	er1,@(0xfff8:16,er6)
    1650:	ff f8 
    1652:	7a 02 00 00 	7a 02 00 00 2e fd mov.l	#0x2efd,er2
    1656:	2e fd 
    1658:	01 00 6d f2 	01 00 6d f2       mov.l	er2,@-er7
    165c:	5e 00 06 ca 	5e 00 06 ca       jsr	@0x6ca:0
    1660:	0b 97       	0b 97             adds	#0x4,er7
    1662:	19 22       	19 22             sub.w	r2,r2
    1664:	0d 20       	0d 20             mov.w	r2,r0
    1666:	0b 97       	0b 97             adds	#0x4,er7
    1668:	0b 97       	0b 97             adds	#0x4,er7
    166a:	01 00 6d 76 	01 00 6d 76       mov.l	@er7+,er6
    166e:	54 70       	54 70             rts	

00001670 <_cmd_ver>:
    1670:	01 00 6d f6 	01 00 6d f6       mov.l	er6,@-er7
    1674:	0f f6       	0f f6             mov.l	er7,er6
    1676:	1b 97       	1b 97             subs	#0x4,er7
    1678:	1b 97       	1b 97             subs	#0x4,er7
    167a:	6f e0 ff fe 	6f e0 ff fe       mov.w	r0,@(0xfffe:16,er6)
    167e:	01 00 6f e1 	01 00 6f e1 ff f8 mov.l	er1,@(0xfff8:16,er6)
    1682:	ff f8 
    1684:	7a 02 00 00 	7a 02 00 00 2d 1a mov.l	#0x2d1a,er2
    1688:	2d 1a 
    168a:	01 00 6d f2 	01 00 6d f2       mov.l	er2,@-er7
    168e:	7a 02 00 00 	7a 02 00 00 2f 13 mov.l	#0x2f13,er2
    1692:	2f 13 
    1694:	01 00 6d f2 	01 00 6d f2       mov.l	er2,@-er7
    1698:	5e 00 06 ca 	5e 00 06 ca       jsr	@0x6ca:0
    169c:	0b 97       	0b 97             adds	#0x4,er7
    169e:	0b 97       	0b 97             adds	#0x4,er7
    16a0:	19 22       	19 22             sub.w	r2,r2
    16a2:	0d 20       	0d 20             mov.w	r2,r0
    16a4:	0b 97       	0b 97             adds	#0x4,er7
    16a6:	0b 97       	0b 97             adds	#0x4,er7
    16a8:	01 00 6d 76 	01 00 6d 76       mov.l	@er7+,er6
    16ac:	54 70       	54 70             rts	

000016ae <_cmd_reverse>:
    16ae:	01 00 6d f6 	01 00 6d f6       mov.l	er6,@-er7
    16b2:	0f f6       	0f f6             mov.l	er7,er6
    16b4:	1b 97       	1b 97             subs	#0x4,er7
    16b6:	1b 97       	1b 97             subs	#0x4,er7
    16b8:	6f e0 ff fe 	6f e0 ff fe       mov.w	r0,@(0xfffe:16,er6)
    16bc:	01 00 6f e1 	01 00 6f e1 ff f8 mov.l	er1,@(0xfff8:16,er6)
    16c0:	ff f8 
    16c2:	6b 02 f1 54 	6b 02 f1 54       mov.w	@0xf154:16,r2
    16c6:	0d 22       	0d 22             mov.w	r2,r2
    16c8:	46 0a       	46 0a             bne	.+10 (16d4)
    16ca:	79 02 00 01 	79 02 00 01       mov.w	#0x1,r2
    16ce:	6b 82 f1 54 	6b 82 f1 54       mov.w	r2,@0xf154:16
    16d2:	40 26       	40 26             bra	.+38 (16fa)

000016d4 <.L14>:
    16d4:	6b 02 f1 54 	6b 02 f1 54       mov.w	@0xf154:16,r2
    16d8:	79 22 00 01 	79 22 00 01       cmp.w	#0x1,r2
    16dc:	46 0a       	46 0a             bne	.+10 (16e8)
    16de:	79 02 ff ff 	79 02 ff ff       mov.w	#0xffff,r2
    16e2:	6b 82 f1 54 	6b 82 f1 54       mov.w	r2,@0xf154:16
    16e6:	40 12       	40 12             bra	.+18 (16fa)

000016e8 <.L16>:
    16e8:	6b 02 f1 54 	6b 02 f1 54       mov.w	@0xf154:16,r2
    16ec:	79 22 ff ff 	79 22 ff ff       cmp.w	#0xffff,r2
    16f0:	46 08       	46 08             bne	.+8 (16fa)
    16f2:	79 02 00 01 	79 02 00 01       mov.w	#0x1,r2
    16f6:	6b 82 f1 54 	6b 82 f1 54       mov.w	r2,@0xf154:16

000016fa <.L15>:
    16fa:	19 22       	19 22             sub.w	r2,r2
    16fc:	0d 20       	0d 20             mov.w	r2,r0
    16fe:	0b 97       	0b 97             adds	#0x4,er7
    1700:	0b 97       	0b 97             adds	#0x4,er7
    1702:	01 00 6d 76 	01 00 6d 76       mov.l	@er7+,er6
    1706:	54 70       	54 70             rts	

00001708 <_cmd_stop>:
    1708:	01 00 6d f6 	01 00 6d f6       mov.l	er6,@-er7
    170c:	0f f6       	0f f6             mov.l	er7,er6
    170e:	1b 97       	1b 97             subs	#0x4,er7
    1710:	1b 97       	1b 97             subs	#0x4,er7
    1712:	6f e0 ff fe 	6f e0 ff fe       mov.w	r0,@(0xfffe:16,er6)
    1716:	01 00 6f e1 	01 00 6f e1 ff f8 mov.l	er1,@(0xfff8:16,er6)
    171a:	ff f8 
    171c:	19 22       	19 22             sub.w	r2,r2
    171e:	6b 82 f1 54 	6b 82 f1 54       mov.w	r2,@0xf154:16
    1722:	19 22       	19 22             sub.w	r2,r2
    1724:	0d 20       	0d 20             mov.w	r2,r0
    1726:	0b 97       	0b 97             adds	#0x4,er7
    1728:	0b 97       	0b 97             adds	#0x4,er7
    172a:	01 00 6d 76 	01 00 6d 76       mov.l	@er7+,er6
    172e:	54 70       	54 70             rts	

00001730 <_initABMP>:
    1730:	01 00 6d f6 	01 00 6d f6       mov.l	er6,@-er7
    1734:	0f f6       	0f f6             mov.l	er7,er6
    1736:	1b 97       	1b 97             subs	#0x4,er7
    1738:	1b 97       	1b 97             subs	#0x4,er7
    173a:	01 00 6f e0 	01 00 6f e0 ff fc mov.l	er0,@(0xfffc:16,er6)
    173e:	ff fc 
    1740:	01 00 6f 62 	01 00 6f 62 ff fc mov.l	@(0xfffc:16,er6),er2
    1744:	ff fc 
    1746:	7a 03 00 ff 	7a 03 00 ff ef 80 mov.l	#0xffef80,er3
    174a:	ef 80 
    174c:	01 00 6f a3 	01 00 6f a3 00 0c mov.l	er3,@(0xc:16,er2)
    1750:	00 0c 
    1752:	19 22       	19 22             sub.w	r2,r2
    1754:	6f e2 ff fa 	6f e2 ff fa       mov.w	r2,@(0xfffa:16,er6)

00001758 <.L15>:
    1758:	6f 63 ff fa 	6f 63 ff fa       mov.w	@(0xfffa:16,er6),r3
    175c:	6b 02 2f 1c 	6b 02 2f 1c       mov.w	@0x2f1c:16,r2
    1760:	1d 23       	1d 23             cmp.w	r2,r3
    1762:	4d 02       	4d 02             blt	.+2 (1766)
    1764:	40 32       	40 32             bra	.+50 (1798)

00001766 <.L18>:
    1766:	01 00 6f 60 	01 00 6f 60 ff fc mov.l	@(0xfffc:16,er6),er0
    176a:	ff fc 
    176c:	6f 62 ff fa 	6f 62 ff fa       mov.w	@(0xfffa:16,er6),r2
    1770:	0d 23       	0d 23             mov.w	r2,r3
    1772:	17 f3       	17 f3             exts.l	er3
    1774:	01 00 6f 02 	01 00 6f 02 00 0c mov.l	@(0xc:16,er0),er2
    1778:	00 0c 
    177a:	0a a3       	0a a3             add.l	er2,er3
    177c:	6f 62 ff fa 	6f 62 ff fa       mov.w	@(0xfffa:16,er6),r2
    1780:	17 f2       	17 f2             exts.l	er2
    1782:	78 20 6a 2a 	78 20 6a 2a 00 00 2f 1e mov.b	@(0x2f1e:32,er2),r2l
    1786:	00 00 2f 1e 
    178a:	68 ba       	68 ba             mov.b	r2l,@er3
    178c:	6f 62 ff fa 	6f 62 ff fa       mov.w	@(0xfffa:16,er6),r2
    1790:	0b 02       	0b 02             adds	#0x1,er2
    1792:	6f e2 ff fa 	6f e2 ff fa       mov.w	r2,@(0xfffa:16,er6)
    1796:	40 c0       	40 c0             bra	.-64 (1758)

00001798 <.L16>:
    1798:	01 00 6f 63 	01 00 6f 63 ff fc mov.l	@(0xfffc:16,er6),er3
    179c:	ff fc 
    179e:	6b 02 2f 1c 	6b 02 2f 1c       mov.w	@0x2f1c:16,r2
    17a2:	17 f2       	17 f2             exts.l	er2
    17a4:	01 00 6f b2 	01 00 6f b2 00 08 mov.l	er2,@(0x8:16,er3)
    17a8:	00 08 
    17aa:	01 00 6f 63 	01 00 6f 63 ff fc mov.l	@(0xfffc:16,er6),er3
    17ae:	ff fc 
    17b0:	6b 02 2f 18 	6b 02 2f 18       mov.w	@0x2f18:16,r2
    17b4:	17 f2       	17 f2             exts.l	er2
    17b6:	01 00 69 b2 	01 00 69 b2       mov.l	er2,@er3
    17ba:	01 00 6f 63 	01 00 6f 63 ff fc mov.l	@(0xfffc:16,er6),er3
    17be:	ff fc 
    17c0:	6b 02 2f 1a 	6b 02 2f 1a       mov.w	@0x2f1a:16,r2
    17c4:	17 f2       	17 f2             exts.l	er2
    17c6:	01 00 6f b2 	01 00 6f b2 00 04 mov.l	er2,@(0x4:16,er3)
    17ca:	00 04 
    17cc:	0b 97       	0b 97             adds	#0x4,er7
    17ce:	0b 97       	0b 97             adds	#0x4,er7
    17d0:	01 00 6d 76 	01 00 6d 76       mov.l	@er7+,er6
    17d4:	54 70       	54 70             rts	

000017d6 <_getpointABMP>:
    17d6:	01 00 6d f6 	01 00 6d f6       mov.l	er6,@-er7
    17da:	0f f6       	0f f6             mov.l	er7,er6
    17dc:	7a 17 ff ff 	7a 17 ff ff ff f4 add.l	#0xfffffff4,er7
    17e0:	ff f4 
    17e2:	01 00 6f e0 	01 00 6f e0 ff fc mov.l	er0,@(0xfffc:16,er6)
    17e6:	ff fc 
    17e8:	6f e1 ff fa 	6f e1 ff fa       mov.w	r1,@(0xfffa:16,er6)
    17ec:	6f e2 ff f8 	6f e2 ff f8       mov.w	r2,@(0xfff8:16,er6)
    17f0:	6f 62 ff fa 	6f 62 ff fa       mov.w	@(0xfffa:16,er6),r2
    17f4:	0d 22       	0d 22             mov.w	r2,r2
    17f6:	4d 18       	4d 18             blt	.+24 (1810)
    17f8:	01 00 6f 60 	01 00 6f 60 ff fc mov.l	@(0xfffc:16,er6),er0
    17fc:	ff fc 
    17fe:	6f 62 ff fa 	6f 62 ff fa       mov.w	@(0xfffa:16,er6),r2
    1802:	0d 23       	0d 23             mov.w	r2,r3
    1804:	17 f3       	17 f3             exts.l	er3
    1806:	01 00 69 02 	01 00 69 02       mov.l	@er0,er2
    180a:	1f b2       	1f b2             cmp.l	er3,er2
    180c:	4f 02       	4f 02             ble	.+2 (1810)
    180e:	40 08       	40 08             bra	.+8 (1818)

00001810 <.L21>:
    1810:	19 22       	19 22             sub.w	r2,r2
    1812:	6f e2 ff f6 	6f e2 ff f6       mov.w	r2,@(0xfff6:16,er6)
    1816:	40 56       	40 56             bra	.+86 (186e)

00001818 <.L20>:
    1818:	6f 62 ff f8 	6f 62 ff f8       mov.w	@(0xfff8:16,er6),r2
    181c:	0d 22       	0d 22             mov.w	r2,r2
    181e:	4d 1a       	4d 1a             blt	.+26 (183a)
    1820:	01 00 6f 60 	01 00 6f 60 ff fc mov.l	@(0xfffc:16,er6),er0
    1824:	ff fc 
    1826:	6f 62 ff f8 	6f 62 ff f8       mov.w	@(0xfff8:16,er6),r2
    182a:	0d 23       	0d 23             mov.w	r2,r3
    182c:	17 f3       	17 f3             exts.l	er3
    182e:	01 00 6f 02 	01 00 6f 02 00 04 mov.l	@(0x4:16,er0),er2
    1832:	00 04 
    1834:	1f b2       	1f b2             cmp.l	er3,er2
    1836:	4f 02       	4f 02             ble	.+2 (183a)
    1838:	40 08       	40 08             bra	.+8 (1842)

0000183a <.L23>:
    183a:	19 22       	19 22             sub.w	r2,r2
    183c:	6f e2 ff f6 	6f e2 ff f6       mov.w	r2,@(0xfff6:16,er6)
    1840:	40 2c       	40 2c             bra	.+44 (186e)

00001842 <.L22>:
    1842:	6f 63 ff fa 	6f 63 ff fa       mov.w	@(0xfffa:16,er6),r3
    1846:	6f 62 ff f8 	6f 62 ff f8       mov.w	@(0xfff8:16,er6),r2
    184a:	01 c0 52 23 	01 c0 52 23       mulxs.w	r2,er3
    184e:	6f 62 ff f8 	6f 62 ff f8       mov.w	@(0xfff8:16,er6),r2
    1852:	09 32       	09 32             add.w	r3,r2
    1854:	01 00 6f 63 	01 00 6f 63 ff fc mov.l	@(0xfffc:16,er6),er3
    1858:	ff fc 
    185a:	0d 21       	0d 21             mov.w	r2,r1
    185c:	01 00 6f 30 	01 00 6f 30 00 0c mov.l	@(0xc:16,er3),er0
    1860:	00 0c 
    1862:	5e 00 1d 10 	5e 00 1d 10       jsr	@0x1d10:0
    1866:	0c 8a       	0c 8a             mov.b	r0l,r2l
    1868:	17 52       	17 52             extu.w	r2
    186a:	6f e2 ff f6 	6f e2 ff f6       mov.w	r2,@(0xfff6:16,er6)

0000186e <.L19>:
    186e:	6f 60 ff f6 	6f 60 ff f6       mov.w	@(0xfff6:16,er6),r0
    1872:	7a 17 00 00 	7a 17 00 00 00 0c add.l	#0xc,er7
    1876:	00 0c 
    1878:	01 00 6d 76 	01 00 6d 76       mov.l	@er7+,er6
    187c:	54 70       	54 70             rts	

0000187e <_letpointABMP>:
    187e:	01 00 6d f6 	01 00 6d f6       mov.l	er6,@-er7
    1882:	0f f6       	0f f6             mov.l	er7,er6
    1884:	1b 97       	1b 97             subs	#0x4,er7
    1886:	1b 97       	1b 97             subs	#0x4,er7
    1888:	01 00 6f e0 	01 00 6f e0 ff fc mov.l	er0,@(0xfffc:16,er6)
    188c:	ff fc 
    188e:	6f e1 ff fa 	6f e1 ff fa       mov.w	r1,@(0xfffa:16,er6)
    1892:	6f e2 ff f8 	6f e2 ff f8       mov.w	r2,@(0xfff8:16,er6)
    1896:	6f 62 ff fa 	6f 62 ff fa       mov.w	@(0xfffa:16,er6),r2
    189a:	0d 22       	0d 22             mov.w	r2,r2
    189c:	4d 6e       	4d 6e             blt	.+110 (190c)
    189e:	01 00 6f 60 	01 00 6f 60 ff fc mov.l	@(0xfffc:16,er6),er0
    18a2:	ff fc 
    18a4:	6f 62 ff fa 	6f 62 ff fa       mov.w	@(0xfffa:16,er6),r2
    18a8:	0d 23       	0d 23             mov.w	r2,r3
    18aa:	17 f3       	17 f3             exts.l	er3
    18ac:	01 00 69 02 	01 00 69 02       mov.l	@er0,er2
    18b0:	1f b2       	1f b2             cmp.l	er3,er2
    18b2:	4f 58       	4f 58             ble	.+88 (190c)
    18b4:	6f 62 ff f8 	6f 62 ff f8       mov.w	@(0xfff8:16,er6),r2
    18b8:	0d 22       	0d 22             mov.w	r2,r2
    18ba:	4d 50       	4d 50             blt	.+80 (190c)
    18bc:	01 00 6f 60 	01 00 6f 60 ff fc mov.l	@(0xfffc:16,er6),er0
    18c0:	ff fc 
    18c2:	6f 62 ff f8 	6f 62 ff f8       mov.w	@(0xfff8:16,er6),r2
    18c6:	0d 23       	0d 23             mov.w	r2,r3
    18c8:	17 f3       	17 f3             exts.l	er3
    18ca:	01 00 6f 02 	01 00 6f 02 00 04 mov.l	@(0x4:16,er0),er2
    18ce:	00 04 
    18d0:	1f b2       	1f b2             cmp.l	er3,er2
    18d2:	4f 38       	4f 38             ble	.+56 (190c)
    18d4:	6f 62 ff fa 	6f 62 ff fa       mov.w	@(0xfffa:16,er6),r2
    18d8:	0d 23       	0d 23             mov.w	r2,r3
    18da:	17 f3       	17 f3             exts.l	er3
    18dc:	01 00 6f 62 	01 00 6f 62 ff fc mov.l	@(0xfffc:16,er6),er2
    18e0:	ff fc 
    18e2:	01 00 6f 21 	01 00 6f 21 00 04 mov.l	@(0x4:16,er2),er1
    18e6:	00 04 
    18e8:	0f b0       	0f b0             mov.l	er3,er0
    18ea:	5e 00 28 3c 	5e 00 28 3c       jsr	@0x283c:0
    18ee:	0f 83       	0f 83             mov.l	er0,er3
    18f0:	6f 62 ff f8 	6f 62 ff f8       mov.w	@(0xfff8:16,er6),r2
    18f4:	09 23       	09 23             add.w	r2,r3
    18f6:	01 00 6f 60 	01 00 6f 60 ff fc mov.l	@(0xfffc:16,er6),er0
    18fa:	ff fc 
    18fc:	6e 6a 00 0b 	6e 6a 00 0b       mov.b	@(0xb:16,er6),r2l
    1900:	0d 31       	0d 31             mov.w	r3,r1
    1902:	01 00 6f 00 	01 00 6f 00 00 0c mov.l	@(0xc:16,er0),er0
    1906:	00 0c 
    1908:	5e 00 1d d6 	5e 00 1d d6       jsr	@0x1dd6:0

0000190c <.L24>:
    190c:	0b 97       	0b 97             adds	#0x4,er7
    190e:	0b 97       	0b 97             adds	#0x4,er7
    1910:	01 00 6d 76 	01 00 6d 76       mov.l	@er7+,er6
    1914:	54 70       	54 70             rts	

00001916 <_readABMP>:
    1916:	01 00 6d f6 	01 00 6d f6       mov.l	er6,@-er7
    191a:	0f f6       	0f f6             mov.l	er7,er6
    191c:	7a 17 ff ff 	7a 17 ff ff ff e0 add.l	#0xffffffe0,er7
    1920:	ff e0 
    1922:	01 00 6d f4 	01 00 6d f4       mov.l	er4,@-er7
    1926:	01 00 6f e0 	01 00 6f e0 ff fc mov.l	er0,@(0xfffc:16,er6)
    192a:	ff fc 
    192c:	5e 00 0f ba 	5e 00 0f ba       jsr	@0xfba:0
    1930:	0d 02       	0d 02             mov.w	r0,r2
    1932:	79 22 4d 42 	79 22 4d 42       cmp.w	#0x4d42,r2
    1936:	47 0c       	47 0c             beq	.+12 (1944)
    1938:	79 02 00 01 	79 02 00 01       mov.w	#0x1,r2
    193c:	6f e2 ff ee 	6f e2 ff ee       mov.w	r2,@(0xffee:16,er6)
    1940:	58 00 02 16 	58 00 02 16       bra	.+536 (1b5a)

00001944 <.L30>:
    1944:	5e 00 0f f6 	5e 00 0f f6       jsr	@0xff6:0
    1948:	5e 00 0f ba 	5e 00 0f ba       jsr	@0xfba:0
    194c:	5e 00 0f ba 	5e 00 0f ba       jsr	@0xfba:0
    1950:	5e 00 0f f6 	5e 00 0f f6       jsr	@0xff6:0
    1954:	5e 00 0f f6 	5e 00 0f f6       jsr	@0xff6:0
    1958:	01 00 6f 64 	01 00 6f 64 ff fc mov.l	@(0xfffc:16,er6),er4
    195c:	ff fc 
    195e:	5e 00 0f f6 	5e 00 0f f6       jsr	@0xff6:0
    1962:	01 00 69 c0 	01 00 69 c0       mov.l	er0,@er4
    1966:	01 00 6f 64 	01 00 6f 64 ff fc mov.l	@(0xfffc:16,er6),er4
    196a:	ff fc 
    196c:	5e 00 0f f6 	5e 00 0f f6       jsr	@0xff6:0
    1970:	01 00 6f c0 	01 00 6f c0 00 04 mov.l	er0,@(0x4:16,er4)
    1974:	00 04 
    1976:	01 00 6f 62 	01 00 6f 62 ff fc mov.l	@(0xfffc:16,er6),er2
    197a:	ff fc 
    197c:	01 00 6f 22 	01 00 6f 22 00 04 mov.l	@(0x4:16,er2),er2
    1980:	00 04 
    1982:	0f a2       	0f a2             mov.l	er2,er2
    1984:	4c 0c       	4c 0c             bge	.+12 (1992)
    1986:	79 03 00 02 	79 03 00 02       mov.w	#0x2,r3
    198a:	6f e3 ff ee 	6f e3 ff ee       mov.w	r3,@(0xffee:16,er6)
    198e:	58 00 01 c8 	58 00 01 c8       bra	.+458 (1b5a)

00001992 <.L31>:
    1992:	5e 00 0f ba 	5e 00 0f ba       jsr	@0xfba:0
    1996:	0d 02       	0d 02             mov.w	r0,r2
    1998:	79 22 00 01 	79 22 00 01       cmp.w	#0x1,r2
    199c:	47 0c       	47 0c             beq	.+12 (19aa)
    199e:	79 02 00 03 	79 02 00 03       mov.w	#0x3,r2
    19a2:	6f e2 ff ee 	6f e2 ff ee       mov.w	r2,@(0xffee:16,er6)
    19a6:	58 00 01 b0 	58 00 01 b0       bra	.+434 (1b5a)

000019aa <.L32>:
    19aa:	5e 00 0f ba 	5e 00 0f ba       jsr	@0xfba:0
    19ae:	0d 02       	0d 02             mov.w	r0,r2
    19b0:	79 22 00 01 	79 22 00 01       cmp.w	#0x1,r2
    19b4:	47 0c       	47 0c             beq	.+12 (19c2)
    19b6:	79 03 00 04 	79 03 00 04       mov.w	#0x4,r3
    19ba:	6f e3 ff ee 	6f e3 ff ee       mov.w	r3,@(0xffee:16,er6)
    19be:	58 00 01 98 	58 00 01 98       bra	.+410 (1b5a)

000019c2 <.L33>:
    19c2:	5e 00 0f f6 	5e 00 0f f6       jsr	@0xff6:0
    19c6:	0f 82       	0f 82             mov.l	er0,er2
    19c8:	0f a2       	0f a2             mov.l	er2,er2
    19ca:	47 0c       	47 0c             beq	.+12 (19d8)
    19cc:	79 02 00 05 	79 02 00 05       mov.w	#0x5,r2
    19d0:	6f e2 ff ee 	6f e2 ff ee       mov.w	r2,@(0xffee:16,er6)
    19d4:	58 00 01 82 	58 00 01 82       bra	.+388 (1b5a)

000019d8 <.L34>:
    19d8:	5e 00 0f f6 	5e 00 0f f6       jsr	@0xff6:0
    19dc:	5e 00 0f f6 	5e 00 0f f6       jsr	@0xff6:0
    19e0:	5e 00 0f f6 	5e 00 0f f6       jsr	@0xff6:0
    19e4:	5e 00 0f f6 	5e 00 0f f6       jsr	@0xff6:0
    19e8:	5e 00 0f f6 	5e 00 0f f6       jsr	@0xff6:0
    19ec:	5e 00 0f f6 	5e 00 0f f6       jsr	@0xff6:0
    19f0:	5e 00 0f f6 	5e 00 0f f6       jsr	@0xff6:0
    19f4:	01 00 6f 62 	01 00 6f 62 ff fc mov.l	@(0xfffc:16,er6),er2
    19f8:	ff fc 
    19fa:	01 00 69 22 	01 00 69 22       mov.l	@er2,er2
    19fe:	7a 12 00 00 	7a 12 00 00 00 1f add.l	#0x1f,er2
    1a02:	00 1f 
    1a04:	01 00 6f e2 	01 00 6f e2 ff e8 mov.l	er2,@(0xffe8:16,er6)
    1a08:	ff e8 
    1a0a:	01 00 6f 63 	01 00 6f 63 ff e8 mov.l	@(0xffe8:16,er6),er3
    1a0e:	ff e8 
    1a10:	0f b3       	0f b3             mov.l	er3,er3
    1a12:	4c 12       	4c 12             bge	.+18 (1a26)
    1a14:	01 00 6f 62 	01 00 6f 62 ff e8 mov.l	@(0xffe8:16,er6),er2
    1a18:	ff e8 
    1a1a:	7a 12 00 00 	7a 12 00 00 00 1f add.l	#0x1f,er2
    1a1e:	00 1f 
    1a20:	01 00 6f e2 	01 00 6f e2 ff e8 mov.l	er2,@(0xffe8:16,er6)
    1a24:	ff e8 

00001a26 <.L35>:
    1a26:	01 00 6f 62 	01 00 6f 62 ff e8 mov.l	@(0xffe8:16,er6),er2
    1a2a:	ff e8 
    1a2c:	fb 05       	fb 05             mov.b	#0x5,r3l

00001a2e <.Llt1>:
    1a2e:	11 b2       	11 b2             shar	er2
    1a30:	8b ff       	8b ff             add.b	#0xff,r3l
    1a32:	46 fa       	46 fa             bne	.-6 (1a2e)
    1a34:	fb 05       	fb 05             mov.b	#0x5,r3l

00001a36 <.Llt2>:
    1a36:	10 32       	10 32             shll	er2
    1a38:	8b ff       	8b ff             add.b	#0xff,r3l
    1a3a:	46 fa       	46 fa             bne	.-6 (1a36)
    1a3c:	01 00 6f e2 	01 00 6f e2 ff f8 mov.l	er2,@(0xfff8:16,er6)
    1a40:	ff f8 
    1a42:	01 00 6f 62 	01 00 6f 62 ff fc mov.l	@(0xfffc:16,er6),er2
    1a46:	ff fc 
    1a48:	01 00 6f e2 	01 00 6f e2 ff e4 mov.l	er2,@(0xffe4:16,er6)
    1a4c:	ff e4 
    1a4e:	01 00 6f 63 	01 00 6f 63 ff fc mov.l	@(0xfffc:16,er6),er3
    1a52:	ff fc 
    1a54:	01 00 6f 62 	01 00 6f 62 ff fc mov.l	@(0xfffc:16,er6),er2
    1a58:	ff fc 
    1a5a:	01 00 6f 21 	01 00 6f 21 00 04 mov.l	@(0x4:16,er2),er1
    1a5e:	00 04 
    1a60:	01 00 69 30 	01 00 69 30       mov.l	@er3,er0
    1a64:	5e 00 28 3c 	5e 00 28 3c       jsr	@0x283c:0
    1a68:	0f 82       	0f 82             mov.l	er0,er2
    1a6a:	01 00 6f e2 	01 00 6f e2 ff e0 mov.l	er2,@(0xffe0:16,er6)
    1a6e:	ff e0 
    1a70:	01 00 6f 63 	01 00 6f 63 ff e0 mov.l	@(0xffe0:16,er6),er3
    1a74:	ff e0 
    1a76:	0f b3       	0f b3             mov.l	er3,er3
    1a78:	4c 12       	4c 12             bge	.+18 (1a8c)
    1a7a:	01 00 6f 62 	01 00 6f 62 ff e0 mov.l	@(0xffe0:16,er6),er2
    1a7e:	ff e0 
    1a80:	7a 12 00 00 	7a 12 00 00 00 07 add.l	#0x7,er2
    1a84:	00 07 
    1a86:	01 00 6f e2 	01 00 6f e2 ff e0 mov.l	er2,@(0xffe0:16,er6)
    1a8a:	ff e0 

00001a8c <.L36>:
    1a8c:	01 00 6f 62 	01 00 6f 62 ff e0 mov.l	@(0xffe0:16,er6),er2
    1a90:	ff e0 
    1a92:	11 b2       	11 b2             shar	er2
    1a94:	11 b2       	11 b2             shar	er2
    1a96:	11 b2       	11 b2             shar	er2
    1a98:	01 00 6f 63 	01 00 6f 63 ff e4 mov.l	@(0xffe4:16,er6),er3
    1a9c:	ff e4 
    1a9e:	01 00 6f b2 	01 00 6f b2 00 08 mov.l	er2,@(0x8:16,er3)
    1aa2:	00 08 
    1aa4:	01 00 6f 62 	01 00 6f 62 ff fc mov.l	@(0xfffc:16,er6),er2
    1aa8:	ff fc 
    1aaa:	6f 22 00 06 	6f 22 00 06       mov.w	@(0x6:16,er2),r2
    1aae:	1b 02       	1b 02             subs	#0x1,er2
    1ab0:	6f e2 ff f4 	6f e2 ff f4       mov.w	r2,@(0xfff4:16,er6)

00001ab4 <.L37>:
    1ab4:	6f 62 ff f4 	6f 62 ff f4       mov.w	@(0xfff4:16,er6),r2
    1ab8:	0d 22       	0d 22             mov.w	r2,r2
    1aba:	4c 04       	4c 04             bge	.+4 (1ac0)
    1abc:	58 00 00 94 	58 00 00 94       bra	.+150 (1b54)

00001ac0 <.L40>:
    1ac0:	19 22       	19 22             sub.w	r2,r2
    1ac2:	6f e2 ff f6 	6f e2 ff f6       mov.w	r2,@(0xfff6:16,er6)

00001ac6 <.L41>:
    1ac6:	6f 62 ff f6 	6f 62 ff f6       mov.w	@(0xfff6:16,er6),r2
    1aca:	0d 23       	0d 23             mov.w	r2,r3
    1acc:	17 f3       	17 f3             exts.l	er3
    1ace:	01 00 6f 62 	01 00 6f 62 ff f8 mov.l	@(0xfff8:16,er6),er2
    1ad2:	ff f8 
    1ad4:	1f a3       	1f a3             cmp.l	er2,er3
    1ad6:	4d 02       	4d 02             blt	.+2 (1ada)
    1ad8:	40 6c       	40 6c             bra	.+108 (1b46)

00001ada <.L44>:
    1ada:	5e 00 0d a4 	5e 00 0d a4       jsr	@0xda4:0
    1ade:	0c 8a       	0c 8a             mov.b	r0l,r2l
    1ae0:	6e ea ff f1 	6e ea ff f1       mov.b	r2l,@(0xfff1:16,er6)
    1ae4:	19 22       	19 22             sub.w	r2,r2
    1ae6:	6f e2 ff f2 	6f e2 ff f2       mov.w	r2,@(0xfff2:16,er6)

00001aea <.L45>:
    1aea:	6f 62 ff f2 	6f 62 ff f2       mov.w	@(0xfff2:16,er6),r2
    1aee:	79 22 00 07 	79 22 00 07       cmp.w	#0x7,r2
    1af2:	4f 02       	4f 02             ble	.+2 (1af6)
    1af4:	40 42       	40 42             bra	.+66 (1b38)

00001af6 <.L48>:
    1af6:	6f 63 ff f6 	6f 63 ff f6       mov.w	@(0xfff6:16,er6),r3
    1afa:	6f 62 ff f2 	6f 62 ff f2       mov.w	@(0xfff2:16,er6),r2
    1afe:	0d 34       	0d 34             mov.w	r3,r4
    1b00:	09 24       	09 24             add.w	r2,r4
    1b02:	0f e2       	0f e2             mov.l	er6,er2
    1b04:	7a 12 ff ff 	7a 12 ff ff ff f1 add.l	#0xfffffff1,er2
    1b08:	ff f1 
    1b0a:	6f 61 ff f2 	6f 61 ff f2       mov.w	@(0xfff2:16,er6),r1
    1b0e:	0f a0       	0f a0             mov.l	er2,er0
    1b10:	5e 00 1d 10 	5e 00 1d 10       jsr	@0x1d10:0
    1b14:	0c 8a       	0c 8a             mov.b	r0l,r2l
    1b16:	01 00 6d f2 	01 00 6d f2       mov.l	er2,@-er7
    1b1a:	6f 62 ff f4 	6f 62 ff f4       mov.w	@(0xfff4:16,er6),r2
    1b1e:	0d 41       	0d 41             mov.w	r4,r1
    1b20:	01 00 6f 60 	01 00 6f 60 ff fc mov.l	@(0xfffc:16,er6),er0
    1b24:	ff fc 
    1b26:	5e 00 18 7e 	5e 00 18 7e       jsr	@0x187e:0
    1b2a:	0b 97       	0b 97             adds	#0x4,er7
    1b2c:	6f 62 ff f2 	6f 62 ff f2       mov.w	@(0xfff2:16,er6),r2
    1b30:	0b 02       	0b 02             adds	#0x1,er2
    1b32:	6f e2 ff f2 	6f e2 ff f2       mov.w	r2,@(0xfff2:16,er6)
    1b36:	40 b2       	40 b2             bra	.-78 (1aea)

00001b38 <.L43>:
    1b38:	6f 62 ff f6 	6f 62 ff f6       mov.w	@(0xfff6:16,er6),r2
    1b3c:	79 12 00 08 	79 12 00 08       add.w	#0x8,r2
    1b40:	6f e2 ff f6 	6f e2 ff f6       mov.w	r2,@(0xfff6:16,er6)
    1b44:	40 80       	40 80             bra	.-128 (1ac6)

00001b46 <.L39>:
    1b46:	6f 62 ff f4 	6f 62 ff f4       mov.w	@(0xfff4:16,er6),r2
    1b4a:	1b 02       	1b 02             subs	#0x1,er2
    1b4c:	6f e2 ff f4 	6f e2 ff f4       mov.w	r2,@(0xfff4:16,er6)
    1b50:	58 00 ff 60 	58 00 ff 60       bra	.-158 (1ab4)

00001b54 <.L38>:
    1b54:	19 22       	19 22             sub.w	r2,r2
    1b56:	6f e2 ff ee 	6f e2 ff ee       mov.w	r2,@(0xffee:16,er6)

00001b5a <.L29>:
    1b5a:	6f 60 ff ee 	6f 60 ff ee       mov.w	@(0xffee:16,er6),r0
    1b5e:	01 00 6d 74 	01 00 6d 74       mov.l	@er7+,er4
    1b62:	7a 17 00 00 	7a 17 00 00 00 20 add.l	#0x20,er7
    1b66:	00 20 
    1b68:	01 00 6d 76 	01 00 6d 76       mov.l	@er7+,er6
    1b6c:	54 70       	54 70             rts	

00001b6e <_dumpABMP>:
    1b6e:	01 00 6d f6 	01 00 6d f6       mov.l	er6,@-er7
    1b72:	0f f6       	0f f6             mov.l	er7,er6
    1b74:	1b 97       	1b 97             subs	#0x4,er7
    1b76:	1b 97       	1b 97             subs	#0x4,er7
    1b78:	01 00 6f e0 	01 00 6f e0 ff fc mov.l	er0,@(0xfffc:16,er6)
    1b7c:	ff fc 
    1b7e:	01 00 6f 62 	01 00 6f 62 ff fc mov.l	@(0xfffc:16,er6),er2
    1b82:	ff fc 
    1b84:	01 00 6d f2 	01 00 6d f2       mov.l	er2,@-er7
    1b88:	7a 02 00 00 	7a 02 00 00 30 e6 mov.l	#0x30e6,er2
    1b8c:	30 e6 
    1b8e:	01 00 6d f2 	01 00 6d f2       mov.l	er2,@-er7
    1b92:	5e 00 06 ca 	5e 00 06 ca       jsr	@0x6ca:0
    1b96:	0b 97       	0b 97             adds	#0x4,er7
    1b98:	0b 97       	0b 97             adds	#0x4,er7
    1b9a:	01 00 6f 62 	01 00 6f 62 ff fc mov.l	@(0xfffc:16,er6),er2
    1b9e:	ff fc 
    1ba0:	01 00 6f 22 	01 00 6f 22 00 0c mov.l	@(0xc:16,er2),er2
    1ba4:	00 0c 
    1ba6:	01 00 6d f2 	01 00 6d f2       mov.l	er2,@-er7
    1baa:	01 00 6f 62 	01 00 6f 62 ff fc mov.l	@(0xfffc:16,er6),er2
    1bae:	ff fc 
    1bb0:	01 00 6f 22 	01 00 6f 22 00 08 mov.l	@(0x8:16,er2),er2
    1bb4:	00 08 
    1bb6:	01 00 6d f2 	01 00 6d f2       mov.l	er2,@-er7
    1bba:	01 00 6f 62 	01 00 6f 62 ff fc mov.l	@(0xfffc:16,er6),er2
    1bbe:	ff fc 
    1bc0:	01 00 6f 22 	01 00 6f 22 00 04 mov.l	@(0x4:16,er2),er2
    1bc4:	00 04 
    1bc6:	01 00 6d f2 	01 00 6d f2       mov.l	er2,@-er7
    1bca:	01 00 6f 62 	01 00 6f 62 ff fc mov.l	@(0xfffc:16,er6),er2
    1bce:	ff fc 
    1bd0:	01 00 69 22 	01 00 69 22       mov.l	@er2,er2
    1bd4:	01 00 6d f2 	01 00 6d f2       mov.l	er2,@-er7
    1bd8:	7a 02 00 00 	7a 02 00 00 30 f5 mov.l	#0x30f5,er2
    1bdc:	30 f5 
    1bde:	01 00 6d f2 	01 00 6d f2       mov.l	er2,@-er7
    1be2:	5e 00 06 ca 	5e 00 06 ca       jsr	@0x6ca:0
    1be6:	7a 17 00 00 	7a 17 00 00 00 14 add.l	#0x14,er7
    1bea:	00 14 
    1bec:	7a 02 00 00 	7a 02 00 00 31 17 mov.l	#0x3117,er2
    1bf0:	31 17 
    1bf2:	01 00 6d f2 	01 00 6d f2       mov.l	er2,@-er7
    1bf6:	5e 00 06 ca 	5e 00 06 ca       jsr	@0x6ca:0
    1bfa:	0b 97       	0b 97             adds	#0x4,er7
    1bfc:	19 22       	19 22             sub.w	r2,r2
    1bfe:	6f e2 ff fa 	6f e2 ff fa       mov.w	r2,@(0xfffa:16,er6)

00001c02 <.L50>:
    1c02:	6f 62 ff fa 	6f 62 ff fa       mov.w	@(0xfffa:16,er6),r2
    1c06:	0d 23       	0d 23             mov.w	r2,r3
    1c08:	17 f3       	17 f3             exts.l	er3
    1c0a:	01 00 6f 62 	01 00 6f 62 ff fc mov.l	@(0xfffc:16,er6),er2
    1c0e:	ff fc 
    1c10:	01 00 6f 22 	01 00 6f 22 00 08 mov.l	@(0x8:16,er2),er2
    1c14:	00 08 
    1c16:	1f a3       	1f a3             cmp.l	er2,er3
    1c18:	45 02       	45 02             bcs	.+2 (1c1c)
    1c1a:	40 3c       	40 3c             bra	.+60 (1c58)

00001c1c <.L53>:
    1c1c:	01 00 6f 60 	01 00 6f 60 ff fc mov.l	@(0xfffc:16,er6),er0
    1c20:	ff fc 
    1c22:	6f 62 ff fa 	6f 62 ff fa       mov.w	@(0xfffa:16,er6),r2
    1c26:	0d 23       	0d 23             mov.w	r2,r3
    1c28:	17 f3       	17 f3             exts.l	er3
    1c2a:	01 00 6f 02 	01 00 6f 02 00 0c mov.l	@(0xc:16,er0),er2
    1c2e:	00 0c 
    1c30:	0a b2       	0a b2             add.l	er3,er2
    1c32:	68 2a       	68 2a             mov.b	@er2,r2l
    1c34:	17 52       	17 52             extu.w	r2
    1c36:	01 00 6d f2 	01 00 6d f2       mov.l	er2,@-er7
    1c3a:	7a 02 00 00 	7a 02 00 00 31 23 mov.l	#0x3123,er2
    1c3e:	31 23 
    1c40:	01 00 6d f2 	01 00 6d f2       mov.l	er2,@-er7
    1c44:	5e 00 06 ca 	5e 00 06 ca       jsr	@0x6ca:0
    1c48:	0b 97       	0b 97             adds	#0x4,er7
    1c4a:	0b 97       	0b 97             adds	#0x4,er7
    1c4c:	6f 62 ff fa 	6f 62 ff fa       mov.w	@(0xfffa:16,er6),r2
    1c50:	0b 02       	0b 02             adds	#0x1,er2
    1c52:	6f e2 ff fa 	6f e2 ff fa       mov.w	r2,@(0xfffa:16,er6)
    1c56:	40 aa       	40 aa             bra	.-86 (1c02)

00001c58 <.L51>:
    1c58:	7a 02 00 00 	7a 02 00 00 31 2b mov.l	#0x312b,er2
    1c5c:	31 2b 
    1c5e:	01 00 6d f2 	01 00 6d f2       mov.l	er2,@-er7
    1c62:	5e 00 06 ca 	5e 00 06 ca       jsr	@0x6ca:0
    1c66:	0b 97       	0b 97             adds	#0x4,er7
    1c68:	0b 97       	0b 97             adds	#0x4,er7
    1c6a:	0b 97       	0b 97             adds	#0x4,er7
    1c6c:	01 00 6d 76 	01 00 6d 76       mov.l	@er7+,er6
    1c70:	54 70       	54 70             rts	

00001c72 <_printlineABMP>:
    1c72:	01 00 6d f6 	01 00 6d f6       mov.l	er6,@-er7
    1c76:	0f f6       	0f f6             mov.l	er7,er6
    1c78:	7a 17 ff ff 	7a 17 ff ff ff f4 add.l	#0xfffffff4,er7
    1c7c:	ff f4 
    1c7e:	01 00 6f e0 	01 00 6f e0 ff fc mov.l	er0,@(0xfffc:16,er6)
    1c82:	ff fc 
    1c84:	6f e1 ff fa 	6f e1 ff fa       mov.w	r1,@(0xfffa:16,er6)
    1c88:	01 00 6f e2 	01 00 6f e2 ff f4 mov.l	er2,@(0xfff4:16,er6)
    1c8c:	ff f4 
    1c8e:	6f 62 ff fa 	6f 62 ff fa       mov.w	@(0xfffa:16,er6),r2
    1c92:	0d 23       	0d 23             mov.w	r2,r3
    1c94:	17 73       	17 73             extu.l	er3
    1c96:	79 02 00 e4 	79 02 00 e4       mov.w	#0xe4,r2
    1c9a:	53 23       	53 23             divxu.w	r2,er3
    1c9c:	0d b2       	0d b2             mov.w	e3,r2
    1c9e:	6f e2 ff fa 	6f e2 ff fa       mov.w	r2,@(0xfffa:16,er6)
    1ca2:	6f 62 ff fa 	6f 62 ff fa       mov.w	@(0xfffa:16,er6),r2
    1ca6:	0d 23       	0d 23             mov.w	r2,r3
    1ca8:	17 73       	17 73             extu.l	er3
    1caa:	01 00 6f 62 	01 00 6f 62 ff fc mov.l	@(0xfffc:16,er6),er2
    1cae:	ff fc 
    1cb0:	01 00 69 22 	01 00 69 22       mov.l	@er2,er2
    1cb4:	1f a3       	1f a3             cmp.l	er2,er3
    1cb6:	4d 02       	4d 02             blt	.+2 (1cba)
    1cb8:	40 4a       	40 4a             bra	.+74 (1d04)

00001cba <.L55>:
    1cba:	01 00 6f 61 	01 00 6f 61 ff f4 mov.l	@(0xfff4:16,er6),er1
    1cbe:	ff f4 
    1cc0:	01 00 6f 60 	01 00 6f 60 ff fc mov.l	@(0xfffc:16,er6),er0
    1cc4:	ff fc 
    1cc6:	6f 63 ff fa 	6f 63 ff fa       mov.w	@(0xfffa:16,er6),r3
    1cca:	0d 32       	0d 32             mov.w	r3,r2
    1ccc:	09 32       	09 32             add.w	r3,r2
    1cce:	0d 23       	0d 23             mov.w	r2,r3
    1cd0:	17 73       	17 73             extu.l	er3
    1cd2:	01 00 6f 02 	01 00 6f 02 00 0c mov.l	@(0xc:16,er0),er2
    1cd6:	00 0c 
    1cd8:	0a b2       	0a b2             add.l	er3,er2
    1cda:	68 2a       	68 2a             mov.b	@er2,r2l
    1cdc:	68 9a       	68 9a             mov.b	r2l,@er1
    1cde:	01 00 6f 61 	01 00 6f 61 00 08 mov.l	@(0x8:16,er6),er1
    1ce2:	00 08 
    1ce4:	01 00 6f 60 	01 00 6f 60 ff fc mov.l	@(0xfffc:16,er6),er0
    1ce8:	ff fc 
    1cea:	6f 63 ff fa 	6f 63 ff fa       mov.w	@(0xfffa:16,er6),r3
    1cee:	0d 32       	0d 32             mov.w	r3,r2
    1cf0:	09 32       	09 32             add.w	r3,r2
    1cf2:	0b 02       	0b 02             adds	#0x1,er2
    1cf4:	0d 23       	0d 23             mov.w	r2,r3
    1cf6:	17 73       	17 73             extu.l	er3
    1cf8:	01 00 6f 02 	01 00 6f 02 00 0c mov.l	@(0xc:16,er0),er2
    1cfc:	00 0c 
    1cfe:	0a b2       	0a b2             add.l	er3,er2
    1d00:	68 2a       	68 2a             mov.b	@er2,r2l
    1d02:	68 9a       	68 9a             mov.b	r2l,@er1

00001d04 <.L54>:
    1d04:	7a 17 00 00 	7a 17 00 00 00 0c add.l	#0xc,er7
    1d08:	00 0c 
    1d0a:	01 00 6d 76 	01 00 6d 76       mov.l	@er7+,er6
    1d0e:	54 70       	54 70             rts	

00001d10 <_getbit>:
    1d10:	01 00 6d f6 	01 00 6d f6       mov.l	er6,@-er7
    1d14:	0f f6       	0f f6             mov.l	er7,er6
    1d16:	7a 17 ff ff 	7a 17 ff ff ff e8 add.l	#0xffffffe8,er7
    1d1a:	ff e8 
    1d1c:	01 00 6f e0 	01 00 6f e0 ff fc mov.l	er0,@(0xfffc:16,er6)
    1d20:	ff fc 
    1d22:	6f e1 ff fa 	6f e1 ff fa       mov.w	r1,@(0xfffa:16,er6)
    1d26:	6f 62 ff fa 	6f 62 ff fa       mov.w	@(0xfffa:16,er6),r2
    1d2a:	6f e2 ff ec 	6f e2 ff ec       mov.w	r2,@(0xffec:16,er6)
    1d2e:	6f 62 ff ec 	6f 62 ff ec       mov.w	@(0xffec:16,er6),r2
    1d32:	0d 22       	0d 22             mov.w	r2,r2
    1d34:	4c 0c       	4c 0c             bge	.+12 (1d42)
    1d36:	6f 62 ff ec 	6f 62 ff ec       mov.w	@(0xffec:16,er6),r2
    1d3a:	79 12 00 07 	79 12 00 07       add.w	#0x7,r2
    1d3e:	6f e2 ff ec 	6f e2 ff ec       mov.w	r2,@(0xffec:16,er6)

00001d42 <.L2>:
    1d42:	6f 62 ff ec 	6f 62 ff ec       mov.w	@(0xffec:16,er6),r2
    1d46:	11 92       	11 92             shar	r2
    1d48:	11 92       	11 92             shar	r2
    1d4a:	11 92       	11 92             shar	r2
    1d4c:	0d 23       	0d 23             mov.w	r2,r3
    1d4e:	17 f3       	17 f3             exts.l	er3
    1d50:	01 00 6f 62 	01 00 6f 62 ff fc mov.l	@(0xfffc:16,er6),er2
    1d54:	ff fc 
    1d56:	0a b2       	0a b2             add.l	er3,er2
    1d58:	01 00 6f e2 	01 00 6f e2 ff f4 mov.l	er2,@(0xfff4:16,er6)
    1d5c:	ff f4 
    1d5e:	6f 62 ff fa 	6f 62 ff fa       mov.w	@(0xfffa:16,er6),r2
    1d62:	6f e2 ff ea 	6f e2 ff ea       mov.w	r2,@(0xffea:16,er6)
    1d66:	6f 62 ff ea 	6f 62 ff ea       mov.w	@(0xffea:16,er6),r2
    1d6a:	6f e2 ff e8 	6f e2 ff e8       mov.w	r2,@(0xffe8:16,er6)
    1d6e:	6f 62 ff e8 	6f 62 ff e8       mov.w	@(0xffe8:16,er6),r2
    1d72:	0d 22       	0d 22             mov.w	r2,r2
    1d74:	4c 0c       	4c 0c             bge	.+12 (1d82)
    1d76:	6f 62 ff e8 	6f 62 ff e8       mov.w	@(0xffe8:16,er6),r2
    1d7a:	79 12 00 07 	79 12 00 07       add.w	#0x7,r2
    1d7e:	6f e2 ff e8 	6f e2 ff e8       mov.w	r2,@(0xffe8:16,er6)

00001d82 <.L3>:
    1d82:	6f 62 ff e8 	6f 62 ff e8       mov.w	@(0xffe8:16,er6),r2
    1d86:	11 92       	11 92             shar	r2
    1d88:	11 92       	11 92             shar	r2
    1d8a:	11 92       	11 92             shar	r2
    1d8c:	79 03 00 08 	79 03 00 08       mov.w	#0x8,r3
    1d90:	01 c0 52 32 	01 c0 52 32       mulxs.w	r3,er2
    1d94:	6f 63 ff ea 	6f 63 ff ea       mov.w	@(0xffea:16,er6),r3
    1d98:	19 23       	19 23             sub.w	r2,r3
    1d9a:	fa 07       	fa 07             mov.b	#0x7,r2l
    1d9c:	18 ba       	18 ba             sub.b	r3l,r2l
    1d9e:	6e ea ff f3 	6e ea ff f3       mov.b	r2l,@(0xfff3:16,er6)
    1da2:	6e 6b ff f3 	6e 6b ff f3       mov.b	@(0xfff3:16,er6),r3l
    1da6:	01 00 6f 62 	01 00 6f 62 ff f4 mov.l	@(0xfff4:16,er6),er2
    1daa:	ff f4 
    1dac:	7c 20 63 b0 	7c 20 63 b0       btst	r3l,@er2
    1db0:	02 0a       	02 0a             stc	ccr,r2l
    1db2:	ea 04       	ea 04             and.b	#0x4,r2l
    1db4:	6e ea ff ef 	6e ea ff ef       mov.b	r2l,@(0xffef:16,er6)
    1db8:	6e 6a ff ef 	6e 6a ff ef       mov.b	@(0xffef:16,er6),r2l
    1dbc:	17 52       	17 52             extu.w	r2
    1dbe:	6f e2 ff f0 	6f e2 ff f0       mov.w	r2,@(0xfff0:16,er6)
    1dc2:	6e 6a ff f1 	6e 6a ff f1       mov.b	@(0xfff1:16,er6),r2l
    1dc6:	17 52       	17 52             extu.w	r2
    1dc8:	0d 20       	0d 20             mov.w	r2,r0
    1dca:	7a 17 00 00 	7a 17 00 00 00 18 add.l	#0x18,er7
    1dce:	00 18 
    1dd0:	01 00 6d 76 	01 00 6d 76       mov.l	@er7+,er6
    1dd4:	54 70       	54 70             rts	

00001dd6 <_letbit>:
    1dd6:	01 00 6d f6 	01 00 6d f6       mov.l	er6,@-er7
    1dda:	0f f6       	0f f6             mov.l	er7,er6
    1ddc:	7a 17 ff ff 	7a 17 ff ff ff e4 add.l	#0xffffffe4,er7
    1de0:	ff e4 
    1de2:	01 00 6f e0 	01 00 6f e0 ff fc mov.l	er0,@(0xfffc:16,er6)
    1de6:	ff fc 
    1de8:	6f e1 ff fa 	6f e1 ff fa       mov.w	r1,@(0xfffa:16,er6)
    1dec:	6e ea ff f9 	6e ea ff f9       mov.b	r2l,@(0xfff9:16,er6)
    1df0:	6e 6a ff f9 	6e 6a ff f9       mov.b	@(0xfff9:16,er6),r2l
    1df4:	0c aa       	0c aa             mov.b	r2l,r2l
    1df6:	58 70 00 8c 	58 70 00 8c       beq	.+142 (1e86)
    1dfa:	6f 62 ff fa 	6f 62 ff fa       mov.w	@(0xfffa:16,er6),r2
    1dfe:	6f e2 ff f0 	6f e2 ff f0       mov.w	r2,@(0xfff0:16,er6)
    1e02:	6f 62 ff f0 	6f 62 ff f0       mov.w	@(0xfff0:16,er6),r2
    1e06:	0d 22       	0d 22             mov.w	r2,r2
    1e08:	4c 0c       	4c 0c             bge	.+12 (1e16)
    1e0a:	6f 63 ff f0 	6f 63 ff f0       mov.w	@(0xfff0:16,er6),r3
    1e0e:	79 13 00 07 	79 13 00 07       add.w	#0x7,r3
    1e12:	6f e3 ff f0 	6f e3 ff f0       mov.w	r3,@(0xfff0:16,er6)

00001e16 <.L7>:
    1e16:	6f 62 ff f0 	6f 62 ff f0       mov.w	@(0xfff0:16,er6),r2
    1e1a:	11 92       	11 92             shar	r2
    1e1c:	11 92       	11 92             shar	r2
    1e1e:	11 92       	11 92             shar	r2
    1e20:	0d 23       	0d 23             mov.w	r2,r3
    1e22:	17 f3       	17 f3             exts.l	er3
    1e24:	01 00 6f 62 	01 00 6f 62 ff fc mov.l	@(0xfffc:16,er6),er2
    1e28:	ff fc 
    1e2a:	0a b2       	0a b2             add.l	er3,er2
    1e2c:	01 00 6f e2 	01 00 6f e2 ff f4 mov.l	er2,@(0xfff4:16,er6)
    1e30:	ff f4 
    1e32:	6f 62 ff fa 	6f 62 ff fa       mov.w	@(0xfffa:16,er6),r2
    1e36:	6f e2 ff ee 	6f e2 ff ee       mov.w	r2,@(0xffee:16,er6)
    1e3a:	6f 63 ff ee 	6f 63 ff ee       mov.w	@(0xffee:16,er6),r3
    1e3e:	6f e3 ff ec 	6f e3 ff ec       mov.w	r3,@(0xffec:16,er6)
    1e42:	6f 62 ff ec 	6f 62 ff ec       mov.w	@(0xffec:16,er6),r2
    1e46:	0d 22       	0d 22             mov.w	r2,r2
    1e48:	4c 0c       	4c 0c             bge	.+12 (1e56)
    1e4a:	6f 63 ff ec 	6f 63 ff ec       mov.w	@(0xffec:16,er6),r3
    1e4e:	79 13 00 07 	79 13 00 07       add.w	#0x7,r3
    1e52:	6f e3 ff ec 	6f e3 ff ec       mov.w	r3,@(0xffec:16,er6)

00001e56 <.L8>:
    1e56:	6f 62 ff ec 	6f 62 ff ec       mov.w	@(0xffec:16,er6),r2
    1e5a:	11 92       	11 92             shar	r2
    1e5c:	11 92       	11 92             shar	r2
    1e5e:	11 92       	11 92             shar	r2
    1e60:	79 03 00 08 	79 03 00 08       mov.w	#0x8,r3
    1e64:	01 c0 52 32 	01 c0 52 32       mulxs.w	r3,er2
    1e68:	6f 63 ff ee 	6f 63 ff ee       mov.w	@(0xffee:16,er6),r3
    1e6c:	19 23       	19 23             sub.w	r2,r3
    1e6e:	0d 32       	0d 32             mov.w	r3,r2
    1e70:	6e ea ff f3 	6e ea ff f3       mov.b	r2l,@(0xfff3:16,er6)
    1e74:	6e 6b ff f3 	6e 6b ff f3       mov.b	@(0xfff3:16,er6),r3l
    1e78:	01 00 6f 62 	01 00 6f 62 ff f4 mov.l	@(0xfff4:16,er6),er2
    1e7c:	ff f4 
    1e7e:	7d 20 60 b0 	7d 20 60 b0       bset	r3l,@er2
    1e82:	58 00 00 88 	58 00 00 88       bra	.+138 (1f0e)

00001e86 <.L6>:
    1e86:	6f 62 ff fa 	6f 62 ff fa       mov.w	@(0xfffa:16,er6),r2
    1e8a:	6f e2 ff ea 	6f e2 ff ea       mov.w	r2,@(0xffea:16,er6)
    1e8e:	6f 62 ff ea 	6f 62 ff ea       mov.w	@(0xffea:16,er6),r2
    1e92:	0d 22       	0d 22             mov.w	r2,r2
    1e94:	4c 0c       	4c 0c             bge	.+12 (1ea2)
    1e96:	6f 63 ff ea 	6f 63 ff ea       mov.w	@(0xffea:16,er6),r3
    1e9a:	79 13 00 07 	79 13 00 07       add.w	#0x7,r3
    1e9e:	6f e3 ff ea 	6f e3 ff ea       mov.w	r3,@(0xffea:16,er6)

00001ea2 <.L11>:
    1ea2:	6f 62 ff ea 	6f 62 ff ea       mov.w	@(0xffea:16,er6),r2
    1ea6:	11 92       	11 92             shar	r2
    1ea8:	11 92       	11 92             shar	r2
    1eaa:	11 92       	11 92             shar	r2
    1eac:	0d 23       	0d 23             mov.w	r2,r3
    1eae:	17 f3       	17 f3             exts.l	er3
    1eb0:	01 00 6f 62 	01 00 6f 62 ff fc mov.l	@(0xfffc:16,er6),er2
    1eb4:	ff fc 
    1eb6:	0a b2       	0a b2             add.l	er3,er2
    1eb8:	01 00 6f e2 	01 00 6f e2 ff f4 mov.l	er2,@(0xfff4:16,er6)
    1ebc:	ff f4 
    1ebe:	6f 62 ff fa 	6f 62 ff fa       mov.w	@(0xfffa:16,er6),r2
    1ec2:	6f e2 ff e8 	6f e2 ff e8       mov.w	r2,@(0xffe8:16,er6)
    1ec6:	6f 63 ff e8 	6f 63 ff e8       mov.w	@(0xffe8:16,er6),r3
    1eca:	6f e3 ff e6 	6f e3 ff e6       mov.w	r3,@(0xffe6:16,er6)
    1ece:	6f 62 ff e6 	6f 62 ff e6       mov.w	@(0xffe6:16,er6),r2
    1ed2:	0d 22       	0d 22             mov.w	r2,r2
    1ed4:	4c 0c       	4c 0c             bge	.+12 (1ee2)
    1ed6:	6f 63 ff e6 	6f 63 ff e6       mov.w	@(0xffe6:16,er6),r3
    1eda:	79 13 00 07 	79 13 00 07       add.w	#0x7,r3
    1ede:	6f e3 ff e6 	6f e3 ff e6       mov.w	r3,@(0xffe6:16,er6)

00001ee2 <.L12>:
    1ee2:	6f 62 ff e6 	6f 62 ff e6       mov.w	@(0xffe6:16,er6),r2
    1ee6:	11 92       	11 92             shar	r2
    1ee8:	11 92       	11 92             shar	r2
    1eea:	11 92       	11 92             shar	r2
    1eec:	79 03 00 08 	79 03 00 08       mov.w	#0x8,r3
    1ef0:	01 c0 52 32 	01 c0 52 32       mulxs.w	r3,er2
    1ef4:	6f 63 ff e8 	6f 63 ff e8       mov.w	@(0xffe8:16,er6),r3
    1ef8:	19 23       	19 23             sub.w	r2,r3
    1efa:	0d 32       	0d 32             mov.w	r3,r2
    1efc:	6e ea ff f3 	6e ea ff f3       mov.b	r2l,@(0xfff3:16,er6)
    1f00:	6e 6b ff f3 	6e 6b ff f3       mov.b	@(0xfff3:16,er6),r3l
    1f04:	01 00 6f 62 	01 00 6f 62 ff f4 mov.l	@(0xfff4:16,er6),er2
    1f08:	ff f4 
    1f0a:	7d 20 62 b0 	7d 20 62 b0       bclr	r3l,@er2

00001f0e <.L5>:
    1f0e:	7a 17 00 00 	7a 17 00 00 00 1c add.l	#0x1c,er7
    1f12:	00 1c 
    1f14:	01 00 6d 76 	01 00 6d 76       mov.l	@er7+,er6
    1f18:	54 70       	54 70             rts	

00001f1a <_start>:
    1f1a:	7a 07 00 ff 	7a 07 00 ff ff 0c mov.l	#0xffff0c,er7
    1f1e:	ff 0c 
    1f20:	7a 00 00 00 	7a 00 00 00 31 48 mov.l	#0x3148,er0
    1f24:	31 48 
    1f26:	7a 01 00 ff 	7a 01 00 ff ef 10 mov.l	#0xffef10,er1
    1f2a:	ef 10 
    1f2c:	7a 02 00 ff 	7a 02 00 ff ef 10 mov.l	#0xffef10,er2
    1f30:	ef 10 

00001f32 <data_init_loop>:
    1f32:	1f a1       	1f a1             cmp.l	er2,er1
    1f34:	4c 08       	4c 08             bge	.+8 (1f3e)
    1f36:	6c 0b       	6c 0b             mov.b	@er0+,r3l
    1f38:	68 9b       	68 9b             mov.b	r3l,@er1
    1f3a:	0b 01       	0b 01             adds	#0x1,er1
    1f3c:	40 f4       	40 f4             bra	.-12 (1f32)

00001f3e <fin_data_init>:
    1f3e:	7a 00 00 ff 	7a 00 00 ff ef 10 mov.l	#0xffef10,er0
    1f42:	ef 10 
    1f44:	7a 01 00 ff 	7a 01 00 ff f1 81 mov.l	#0xfff181,er1
    1f48:	f1 81 
    1f4a:	fa 00       	fa 00             mov.b	#0x0,r2l

00001f4c <bss_init_loop>:
    1f4c:	1f 90       	1f 90             cmp.l	er1,er0
    1f4e:	4c 06       	4c 06             bge	.+6 (1f56)
    1f50:	68 8a       	68 8a             mov.b	r2l,@er0
    1f52:	0b 00       	0b 00             adds	#0x1,er0
    1f54:	40 f6       	40 f6             bra	.-10 (1f4c)

00001f56 <fin_bss_init>:
    1f56:	5e 00 04 14 	5e 00 04 14       jsr	@0x414:0

00001f5a <_exit>:
    1f5a:	01 80       	01 80             sleep	
    1f5c:	40 fc       	40 fc             bra	.-4 (1f5a)

00001f5e <___floatsisf>:
    1f5e:	01 00 6d f6 	01 00 6d f6       mov.l	er6,@-er7
    1f62:	0f f6       	0f f6             mov.l	er7,er6
    1f64:	1b 97       	1b 97             subs	#0x4,er7
    1f66:	1b 97       	1b 97             subs	#0x4,er7
    1f68:	fa 03       	fa 03             mov.b	#0x3,r2l
    1f6a:	6e ea ff f8 	6e ea ff f8       mov.b	r2l,@(0xfff8:16,er6)
    1f6e:	0f 83       	0f 83             mov.l	er0,er3
    1f70:	10 33       	10 33             shll	er3
    1f72:	01 f0 65 33 	01 f0 65 33       xor.l	er3,er3
    1f76:	12 33       	12 33             rotxl	er3
    1f78:	6e eb ff f9 	6e eb ff f9       mov.b	r3l,@(0xfff9:16,er6)
    1f7c:	0f 80       	0f 80             mov.l	er0,er0
    1f7e:	46 08       	46 08             bne	.+8 (1f88)
    1f80:	8a ff       	8a ff             add.b	#0xff,r2l
    1f82:	6e ea ff f8 	6e ea ff f8       mov.b	r2l,@(0xfff8:16,er6)
    1f86:	40 50       	40 50             bra	.+80 (1fd8)

00001f88 <.L3>:
    1f88:	79 02 00 1e 	79 02 00 1e       mov.w	#0x1e,r2
    1f8c:	6f e2 ff fa 	6f e2 ff fa       mov.w	r2,@(0xfffa:16,er6)
    1f90:	0c bb       	0c bb             mov.b	r3l,r3l
    1f92:	47 12       	47 12             beq	.+18 (1fa6)
    1f94:	7a 20 80 00 	7a 20 80 00 00 00 cmp.l	#0x80000000,er0
    1f98:	00 00 
    1f9a:	46 08       	46 08             bne	.+8 (1fa4)
    1f9c:	7a 00 cf 00 	7a 00 cf 00 00 00 mov.l	#0xcf000000,er0
    1fa0:	00 00 
    1fa2:	40 3e       	40 3e             bra	.+62 (1fe2)

00001fa4 <.L6>:
    1fa4:	17 b0       	17 b0             neg.l	er0

00001fa6 <.L5>:
    1fa6:	01 00 6f e0 	01 00 6f e0 ff fc mov.l	er0,@(0xfffc:16,er6)
    1faa:	ff fc 
    1fac:	01 00 6f 63 	01 00 6f 63 ff fc mov.l	@(0xfffc:16,er6),er3
    1fb0:	ff fc 
    1fb2:	7a 23 3f ff 	7a 23 3f ff ff ff cmp.l	#0x3fffffff,er3
    1fb6:	ff ff 
    1fb8:	42 1e       	42 1e             bhi	.+30 (1fd8)
    1fba:	6f 60 ff fa 	6f 60 ff fa       mov.w	@(0xfffa:16,er6),r0

00001fbe <.L11>:
    1fbe:	0f b2       	0f b2             mov.l	er3,er2
    1fc0:	10 32       	10 32             shll	er2
    1fc2:	1b 00       	1b 00             subs	#0x1,er0
    1fc4:	0f a3       	0f a3             mov.l	er2,er3
    1fc6:	7a 22 3f ff 	7a 22 3f ff ff ff cmp.l	#0x3fffffff,er2
    1fca:	ff ff 
    1fcc:	43 f0       	43 f0             bls	.-16 (1fbe)
    1fce:	6f e0 ff fa 	6f e0 ff fa       mov.w	r0,@(0xfffa:16,er6)
    1fd2:	01 00 6f e2 	01 00 6f e2 ff fc mov.l	er2,@(0xfffc:16,er6)
    1fd6:	ff fc 

00001fd8 <.L4>:
    1fd8:	0f e0       	0f e0             mov.l	er6,er0
    1fda:	1b 90       	1b 90             subs	#0x4,er0
    1fdc:	1b 90       	1b 90             subs	#0x4,er0
    1fde:	5e 00 28 54 	5e 00 28 54       jsr	@0x2854:0

00001fe2 <.L1>:
    1fe2:	0b 97       	0b 97             adds	#0x4,er7
    1fe4:	0b 97       	0b 97             adds	#0x4,er7
    1fe6:	01 00 6d 76 	01 00 6d 76       mov.l	@er7+,er6
    1fea:	54 70       	54 70             rts	

00001fec <__fpadd_parts>:
    1fec:	01 00 6d f6 	01 00 6d f6       mov.l	er6,@-er7
    1ff0:	0f f6       	0f f6             mov.l	er7,er6
    1ff2:	7a 17 ff ff 	7a 17 ff ff ff f4 add.l	#0xfffffff4,er7
    1ff6:	ff f4 
    1ff8:	01 00 6d f4 	01 00 6d f4       mov.l	er4,@-er7
    1ffc:	01 00 6d f5 	01 00 6d f5       mov.l	er5,@-er7
    2000:	0f 84       	0f 84             mov.l	er0,er4
    2002:	0f a5       	0f a5             mov.l	er2,er5
    2004:	19 22       	19 22             sub.w	r2,r2
    2006:	68 0b       	68 0b             mov.b	@er0,r3l
    2008:	ab 01       	ab 01             cmp.b	#0x1,r3l
    200a:	42 02       	42 02             bhi	.+2 (200e)
    200c:	0b 02       	0b 02             adds	#0x1,er2

0000200e <.L4>:
    200e:	0d 22       	0d 22             mov.w	r2,r2
    2010:	58 60 00 88 	58 60 00 88       bne	.+138 (209c)
    2014:	19 00       	19 00             sub.w	r0,r0
    2016:	68 1a       	68 1a             mov.b	@er1,r2l
    2018:	aa 01       	aa 01             cmp.b	#0x1,r2l
    201a:	42 02       	42 02             bhi	.+2 (201e)
    201c:	0b 00       	0b 00             adds	#0x1,er0

0000201e <.L7>:
    201e:	0d 00       	0d 00             mov.w	r0,r0
    2020:	58 60 00 8a 	58 60 00 8a       bne	.+140 (20ae)
    2024:	19 00       	19 00             sub.w	r0,r0
    2026:	ab 04       	ab 04             cmp.b	#0x4,r3l
    2028:	46 02       	46 02             bne	.+2 (202c)
    202a:	0b 00       	0b 00             adds	#0x1,er0

0000202c <.L10>:
    202c:	0d 00       	0d 00             mov.w	r0,r0
    202e:	47 22       	47 22             beq	.+34 (2052)
    2030:	19 33       	19 33             sub.w	r3,r3
    2032:	aa 04       	aa 04             cmp.b	#0x4,r2l
    2034:	46 02       	46 02             bne	.+2 (2038)
    2036:	0b 03       	0b 03             adds	#0x1,er3

00002038 <.L13>:
    2038:	0d 33       	0d 33             mov.w	r3,r3
    203a:	47 60       	47 60             beq	.+96 (209c)
    203c:	6e 4b 00 01 	6e 4b 00 01       mov.b	@(0x1:16,er4),r3l
    2040:	6e 1a 00 01 	6e 1a 00 01       mov.b	@(0x1:16,er1),r2l
    2044:	1c ab       	1c ab             cmp.b	r2l,r3l
    2046:	47 54       	47 54             beq	.+84 (209c)
    2048:	7a 00 00 00 	7a 00 00 00 31 30 mov.l	#0x3130,er0
    204c:	31 30 
    204e:	58 00 01 f0 	58 00 01 f0       bra	.+498 (2242)

00002052 <.L8>:
    2052:	19 00       	19 00             sub.w	r0,r0
    2054:	aa 04       	aa 04             cmp.b	#0x4,r2l
    2056:	46 02       	46 02             bne	.+2 (205a)
    2058:	0b 00       	0b 00             adds	#0x1,er0

0000205a <.L17>:
    205a:	0d 00       	0d 00             mov.w	r0,r0
    205c:	46 50       	46 50             bne	.+80 (20ae)
    205e:	19 00       	19 00             sub.w	r0,r0
    2060:	aa 02       	aa 02             cmp.b	#0x2,r2l
    2062:	46 02       	46 02             bne	.+2 (2066)
    2064:	0b 00       	0b 00             adds	#0x1,er0

00002066 <.L20>:
    2066:	0d 00       	0d 00             mov.w	r0,r0
    2068:	47 38       	47 38             beq	.+56 (20a2)
    206a:	19 22       	19 22             sub.w	r2,r2
    206c:	ab 02       	ab 02             cmp.b	#0x2,r3l
    206e:	46 02       	46 02             bne	.+2 (2072)
    2070:	0b 02       	0b 02             adds	#0x1,er2

00002072 <.L23>:
    2072:	0d 22       	0d 22             mov.w	r2,r2
    2074:	47 26       	47 26             beq	.+38 (209c)
    2076:	01 00 69 42 	01 00 69 42       mov.l	@er4,er2
    207a:	01 00 69 d2 	01 00 69 d2       mov.l	er2,@er5
    207e:	01 00 6f 42 	01 00 6f 42 00 04 mov.l	@(0x4:16,er4),er2
    2082:	00 04 
    2084:	01 00 6f d2 	01 00 6f d2 00 04 mov.l	er2,@(0x4:16,er5)
    2088:	00 04 
    208a:	6e 1a 00 01 	6e 1a 00 01       mov.b	@(0x1:16,er1),r2l
    208e:	6e 4c 00 01 	6e 4c 00 01       mov.b	@(0x1:16,er4),r4l
    2092:	16 ca       	16 ca             and.b	r4l,r2l
    2094:	6e da 00 01 	6e da 00 01       mov.b	r2l,@(0x1:16,er5)
    2098:	58 00 01 a4 	58 00 01 a4       bra	.+422 (2240)

0000209c <.L21>:
    209c:	0f c0       	0f c0             mov.l	er4,er0
    209e:	58 00 01 a0 	58 00 01 a0       bra	.+418 (2242)

000020a2 <.L18>:
    20a2:	19 22       	19 22             sub.w	r2,r2
    20a4:	ab 02       	ab 02             cmp.b	#0x2,r3l
    20a6:	46 02       	46 02             bne	.+2 (20aa)
    20a8:	0b 02       	0b 02             adds	#0x1,er2

000020aa <.L26>:
    20aa:	0d 22       	0d 22             mov.w	r2,r2
    20ac:	47 06       	47 06             beq	.+6 (20b4)

000020ae <.L61>:
    20ae:	0f 90       	0f 90             mov.l	er1,er0
    20b0:	58 00 01 8e 	58 00 01 8e       bra	.+400 (2242)

000020b4 <.L24>:
    20b4:	6f 40 00 02 	6f 40 00 02       mov.w	@(0x2:16,er4),r0
    20b8:	6f 12 00 02 	6f 12 00 02       mov.w	@(0x2:16,er1),r2
    20bc:	6f e2 ff f6 	6f e2 ff f6       mov.w	r2,@(0xfff6:16,er6)
    20c0:	01 00 6f 43 	01 00 6f 43 00 04 mov.l	@(0x4:16,er4),er3
    20c4:	00 04 
    20c6:	01 00 6f e3 	01 00 6f e3 ff fc mov.l	er3,@(0xfffc:16,er6)
    20ca:	ff fc 
    20cc:	01 00 6f 12 	01 00 6f 12 00 04 mov.l	@(0x4:16,er1),er2
    20d0:	00 04 
    20d2:	01 00 6f e2 	01 00 6f e2 ff f8 mov.l	er2,@(0xfff8:16,er6)
    20d6:	ff f8 
    20d8:	0d 02       	0d 02             mov.w	r0,r2
    20da:	6f 63 ff f6 	6f 63 ff f6       mov.w	@(0xfff6:16,er6),r3
    20de:	19 32       	19 32             sub.w	r3,r2
    20e0:	0d 22       	0d 22             mov.w	r2,r2
    20e2:	4c 02       	4c 02             bge	.+2 (20e6)
    20e4:	17 92       	17 92             neg.w	r2

000020e6 <.L27>:
    20e6:	79 22 00 1f 	79 22 00 1f       cmp.w	#0x1f,r2
    20ea:	4e 70       	4e 70             bgt	.+112 (215c)
    20ec:	6f 62 ff f6 	6f 62 ff f6       mov.w	@(0xfff6:16,er6),r2
    20f0:	1d 20       	1d 20             cmp.w	r2,r0
    20f2:	4f 36       	4f 36             ble	.+54 (212a)
    20f4:	0d 03       	0d 03             mov.w	r0,r3
    20f6:	19 23       	19 23             sub.w	r2,r3
    20f8:	6f e3 ff f6 	6f e3 ff f6       mov.w	r3,@(0xfff6:16,er6)

000020fc <.L32>:
    20fc:	6f 62 ff f6 	6f 62 ff f6       mov.w	@(0xfff6:16,er6),r2
    2100:	1b 02       	1b 02             subs	#0x1,er2
    2102:	6f e2 ff f6 	6f e2 ff f6       mov.w	r2,@(0xfff6:16,er6)
    2106:	01 00 6f 62 	01 00 6f 62 ff f8 mov.l	@(0xfff8:16,er6),er2
    210a:	ff f8 
    210c:	11 32       	11 32             shlr	er2
    210e:	01 00 6f 63 	01 00 6f 63 ff f8 mov.l	@(0xfff8:16,er6),er3
    2112:	ff f8 
    2114:	77 0b       	77 0b             bld	#0x0,r3l
    2116:	74 0a       	74 0a             bor	#0x0,r2l
    2118:	67 0a       	67 0a             bst	#0x0,r2l
    211a:	01 00 6f e2 	01 00 6f e2 ff f8 mov.l	er2,@(0xfff8:16,er6)
    211e:	ff f8 
    2120:	6f 62 ff f6 	6f 62 ff f6       mov.w	@(0xfff6:16,er6),r2
    2124:	46 d6       	46 d6             bne	.-42 (20fc)
    2126:	6f e0 ff f6 	6f e0 ff f6       mov.w	r0,@(0xfff6:16,er6)

0000212a <.L52>:
    212a:	6f 63 ff f6 	6f 63 ff f6       mov.w	@(0xfff6:16,er6),r3
    212e:	1d 03       	1d 03             cmp.w	r0,r3
    2130:	4f 48       	4f 48             ble	.+72 (217a)
    2132:	19 03       	19 03             sub.w	r0,r3
    2134:	0d 30       	0d 30             mov.w	r3,r0

00002136 <.L36>:
    2136:	1b 00       	1b 00             subs	#0x1,er0
    2138:	01 00 6f 62 	01 00 6f 62 ff fc mov.l	@(0xfffc:16,er6),er2
    213c:	ff fc 
    213e:	11 32       	11 32             shlr	er2
    2140:	01 00 6f 63 	01 00 6f 63 ff fc mov.l	@(0xfffc:16,er6),er3
    2144:	ff fc 
    2146:	77 0b       	77 0b             bld	#0x0,r3l
    2148:	74 0a       	74 0a             bor	#0x0,r2l
    214a:	67 0a       	67 0a             bst	#0x0,r2l
    214c:	01 00 6f e2 	01 00 6f e2 ff fc mov.l	er2,@(0xfffc:16,er6)
    2150:	ff fc 
    2152:	0d 00       	0d 00             mov.w	r0,r0
    2154:	46 e0       	46 e0             bne	.-32 (2136)
    2156:	6f 60 ff f6 	6f 60 ff f6       mov.w	@(0xfff6:16,er6),r0
    215a:	40 1e       	40 1e             bra	.+30 (217a)

0000215c <.L28>:
    215c:	6f 62 ff f6 	6f 62 ff f6       mov.w	@(0xfff6:16,er6),r2
    2160:	1d 20       	1d 20             cmp.w	r2,r0
    2162:	4f 0a       	4f 0a             ble	.+10 (216e)
    2164:	1a b3       	1a b3             sub.l	er3,er3
    2166:	01 00 6f e3 	01 00 6f e3 ff f8 mov.l	er3,@(0xfff8:16,er6)
    216a:	ff f8 
    216c:	40 0c       	40 0c             bra	.+12 (217a)

0000216e <.L38>:
    216e:	6f 60 ff f6 	6f 60 ff f6       mov.w	@(0xfff6:16,er6),r0
    2172:	1a a2       	1a a2             sub.l	er2,er2
    2174:	01 00 6f e2 	01 00 6f e2 ff fc mov.l	er2,@(0xfffc:16,er6)
    2178:	ff fc 

0000217a <.L37>:
    217a:	6e 4b 00 01 	6e 4b 00 01       mov.b	@(0x1:16,er4),r3l
    217e:	6e 1a 00 01 	6e 1a 00 01       mov.b	@(0x1:16,er1),r2l
    2182:	1c ab       	1c ab             cmp.b	r2l,r3l
    2184:	47 7a       	47 7a             beq	.+122 (2200)
    2186:	0c bb       	0c bb             mov.b	r3l,r3l
    2188:	47 0e       	47 0e             beq	.+14 (2198)
    218a:	01 00 6f 63 	01 00 6f 63 ff f8 mov.l	@(0xfff8:16,er6),er3
    218e:	ff f8 
    2190:	01 00 6f 62 	01 00 6f 62 ff fc mov.l	@(0xfffc:16,er6),er2
    2194:	ff fc 
    2196:	40 0c       	40 0c             bra	.+12 (21a4)

00002198 <.L41>:
    2198:	01 00 6f 63 	01 00 6f 63 ff fc mov.l	@(0xfffc:16,er6),er3
    219c:	ff fc 
    219e:	01 00 6f 62 	01 00 6f 62 ff f8 mov.l	@(0xfff8:16,er6),er2
    21a2:	ff f8 

000021a4 <.L59>:
    21a4:	1a a3       	1a a3             sub.l	er2,er3
    21a6:	0f b3       	0f b3             mov.l	er3,er3
    21a8:	4d 0c       	4d 0c             blt	.+12 (21b6)
    21aa:	18 aa       	18 aa             sub.b	r2l,r2l
    21ac:	6e da 00 01 	6e da 00 01       mov.b	r2l,@(0x1:16,er5)
    21b0:	6f d0 00 02 	6f d0 00 02       mov.w	r0,@(0x2:16,er5)
    21b4:	40 0c       	40 0c             bra	.+12 (21c2)

000021b6 <.L43>:
    21b6:	fa 01       	fa 01             mov.b	#0x1,r2l
    21b8:	6e da 00 01 	6e da 00 01       mov.b	r2l,@(0x1:16,er5)
    21bc:	6f d0 00 02 	6f d0 00 02       mov.w	r0,@(0x2:16,er5)
    21c0:	17 b3       	17 b3             neg.l	er3

000021c2 <.L60>:
    21c2:	01 00 6f d3 	01 00 6f d3 00 04 mov.l	er3,@(0x4:16,er5)
    21c6:	00 04 
    21c8:	01 00 6f 53 	01 00 6f 53 00 04 mov.l	@(0x4:16,er5),er3
    21cc:	00 04 
    21ce:	0f b1       	0f b1             mov.l	er3,er1
    21d0:	0f b2       	0f b2             mov.l	er3,er2
    21d2:	1b 02       	1b 02             subs	#0x1,er2
    21d4:	7a 22 3f ff 	7a 22 3f ff ff fe cmp.l	#0x3ffffffe,er2
    21d8:	ff fe 
    21da:	42 42       	42 42             bhi	.+66 (221e)
    21dc:	6f 50 00 02 	6f 50 00 02       mov.w	@(0x2:16,er5),r0

000021e0 <.L48>:
    21e0:	0f 93       	0f 93             mov.l	er1,er3
    21e2:	10 33       	10 33             shll	er3
    21e4:	1b 00       	1b 00             subs	#0x1,er0
    21e6:	0f b1       	0f b1             mov.l	er3,er1
    21e8:	0f b2       	0f b2             mov.l	er3,er2
    21ea:	1b 02       	1b 02             subs	#0x1,er2
    21ec:	7a 22 3f ff 	7a 22 3f ff ff fe cmp.l	#0x3ffffffe,er2
    21f0:	ff fe 
    21f2:	43 ec       	43 ec             bls	.-20 (21e0)
    21f4:	6f d0 00 02 	6f d0 00 02       mov.w	r0,@(0x2:16,er5)
    21f8:	01 00 6f d3 	01 00 6f d3 00 04 mov.l	er3,@(0x4:16,er5)
    21fc:	00 04 
    21fe:	40 1e       	40 1e             bra	.+30 (221e)

00002200 <.L40>:
    2200:	6e db 00 01 	6e db 00 01       mov.b	r3l,@(0x1:16,er5)
    2204:	6f d0 00 02 	6f d0 00 02       mov.w	r0,@(0x2:16,er5)
    2208:	01 00 6f 62 	01 00 6f 62 ff fc mov.l	@(0xfffc:16,er6),er2
    220c:	ff fc 
    220e:	01 00 6f 63 	01 00 6f 63 ff f8 mov.l	@(0xfff8:16,er6),er3
    2212:	ff f8 
    2214:	0a b2       	0a b2             add.l	er3,er2
    2216:	01 00 6f d2 	01 00 6f d2 00 04 mov.l	er2,@(0x4:16,er5)
    221a:	00 04 
    221c:	0f a3       	0f a3             mov.l	er2,er3

0000221e <.L49>:
    221e:	fa 03       	fa 03             mov.b	#0x3,r2l
    2220:	68 da       	68 da             mov.b	r2l,@er5
    2222:	0f b3       	0f b3             mov.l	er3,er3
    2224:	4c 1a       	4c 1a             bge	.+26 (2240)
    2226:	0f b2       	0f b2             mov.l	er3,er2
    2228:	11 32       	11 32             shlr	er2
    222a:	77 0b       	77 0b             bld	#0x0,r3l
    222c:	74 0a       	74 0a             bor	#0x0,r2l
    222e:	67 0a       	67 0a             bst	#0x0,r2l
    2230:	01 00 6f d2 	01 00 6f d2 00 04 mov.l	er2,@(0x4:16,er5)
    2234:	00 04 
    2236:	6f 52 00 02 	6f 52 00 02       mov.w	@(0x2:16,er5),r2
    223a:	0b 02       	0b 02             adds	#0x1,er2
    223c:	6f d2 00 02 	6f d2 00 02       mov.w	r2,@(0x2:16,er5)

00002240 <.L50>:
    2240:	0f d0       	0f d0             mov.l	er5,er0

00002242 <.L1>:
    2242:	01 00 6d 75 	01 00 6d 75       mov.l	@er7+,er5
    2246:	01 00 6d 74 	01 00 6d 74       mov.l	@er7+,er4
    224a:	7a 17 00 00 	7a 17 00 00 00 0c add.l	#0xc,er7
    224e:	00 0c 
    2250:	01 00 6d 76 	01 00 6d 76       mov.l	@er7+,er6
    2254:	54 70       	54 70             rts	

00002256 <___addsf3>:
    2256:	01 00 6d f6 	01 00 6d f6       mov.l	er6,@-er7
    225a:	0f f6       	0f f6             mov.l	er7,er6
    225c:	7a 17 ff ff 	7a 17 ff ff ff e0 add.l	#0xffffffe0,er7
    2260:	ff e0 
    2262:	01 00 6d f4 	01 00 6d f4       mov.l	er4,@-er7
    2266:	01 00 6d f5 	01 00 6d f5       mov.l	er5,@-er7
    226a:	01 00 6f e0 	01 00 6f e0 ff e4 mov.l	er0,@(0xffe4:16,er6)
    226e:	ff e4 
    2270:	01 00 6f e1 	01 00 6f e1 ff e0 mov.l	er1,@(0xffe0:16,er6)
    2274:	ff e0 
    2276:	0f e5       	0f e5             mov.l	er6,er5
    2278:	1b 95       	1b 95             subs	#0x4,er5
    227a:	1b 95       	1b 95             subs	#0x4,er5
    227c:	0f d1       	0f d1             mov.l	er5,er1
    227e:	0f e0       	0f e0             mov.l	er6,er0
    2280:	7a 10 ff ff 	7a 10 ff ff ff e4 add.l	#0xffffffe4,er0
    2284:	ff e4 
    2286:	5e 00 29 ba 	5e 00 29 ba       jsr	@0x29ba:0
    228a:	0f e4       	0f e4             mov.l	er6,er4
    228c:	7a 14 ff ff 	7a 14 ff ff ff f0 add.l	#0xfffffff0,er4
    2290:	ff f0 
    2292:	0f c1       	0f c1             mov.l	er4,er1
    2294:	0f e0       	0f e0             mov.l	er6,er0
    2296:	7a 10 ff ff 	7a 10 ff ff ff e0 add.l	#0xffffffe0,er0
    229a:	ff e0 
    229c:	5e 00 29 ba 	5e 00 29 ba       jsr	@0x29ba:0
    22a0:	0f e2       	0f e2             mov.l	er6,er2
    22a2:	7a 12 ff ff 	7a 12 ff ff ff e8 add.l	#0xffffffe8,er2
    22a6:	ff e8 
    22a8:	0f c1       	0f c1             mov.l	er4,er1
    22aa:	0f d0       	0f d0             mov.l	er5,er0
    22ac:	5e 00 1f ec 	5e 00 1f ec       jsr	@0x1fec:0
    22b0:	5e 00 28 54 	5e 00 28 54       jsr	@0x2854:0
    22b4:	01 00 6d 75 	01 00 6d 75       mov.l	@er7+,er5
    22b8:	01 00 6d 74 	01 00 6d 74       mov.l	@er7+,er4
    22bc:	7a 17 00 00 	7a 17 00 00 00 20 add.l	#0x20,er7
    22c0:	00 20 
    22c2:	01 00 6d 76 	01 00 6d 76       mov.l	@er7+,er6
    22c6:	54 70       	54 70             rts	

000022c8 <___subsf3>:
    22c8:	01 00 6d f6 	01 00 6d f6       mov.l	er6,@-er7
    22cc:	0f f6       	0f f6             mov.l	er7,er6
    22ce:	7a 17 ff ff 	7a 17 ff ff ff e0 add.l	#0xffffffe0,er7
    22d2:	ff e0 
    22d4:	01 00 6d f4 	01 00 6d f4       mov.l	er4,@-er7
    22d8:	01 00 6d f5 	01 00 6d f5       mov.l	er5,@-er7
    22dc:	01 00 6f e0 	01 00 6f e0 ff e4 mov.l	er0,@(0xffe4:16,er6)
    22e0:	ff e4 
    22e2:	01 00 6f e1 	01 00 6f e1 ff e0 mov.l	er1,@(0xffe0:16,er6)
    22e6:	ff e0 
    22e8:	0f e5       	0f e5             mov.l	er6,er5
    22ea:	1b 95       	1b 95             subs	#0x4,er5
    22ec:	1b 95       	1b 95             subs	#0x4,er5
    22ee:	0f d1       	0f d1             mov.l	er5,er1
    22f0:	0f e0       	0f e0             mov.l	er6,er0
    22f2:	7a 10 ff ff 	7a 10 ff ff ff e4 add.l	#0xffffffe4,er0
    22f6:	ff e4 
    22f8:	5e 00 29 ba 	5e 00 29 ba       jsr	@0x29ba:0
    22fc:	0f e4       	0f e4             mov.l	er6,er4
    22fe:	7a 14 ff ff 	7a 14 ff ff ff f0 add.l	#0xfffffff0,er4
    2302:	ff f0 
    2304:	0f c1       	0f c1             mov.l	er4,er1
    2306:	0f e0       	0f e0             mov.l	er6,er0
    2308:	7a 10 ff ff 	7a 10 ff ff ff e0 add.l	#0xffffffe0,er0
    230c:	ff e0 
    230e:	5e 00 29 ba 	5e 00 29 ba       jsr	@0x29ba:0
    2312:	6e 6a ff f1 	6e 6a ff f1       mov.b	@(0xfff1:16,er6),r2l
    2316:	da 01       	da 01             xor	#0x1,r2l
    2318:	6e ea ff f1 	6e ea ff f1       mov.b	r2l,@(0xfff1:16,er6)
    231c:	0f e2       	0f e2             mov.l	er6,er2
    231e:	7a 12 ff ff 	7a 12 ff ff ff e8 add.l	#0xffffffe8,er2
    2322:	ff e8 
    2324:	0f c1       	0f c1             mov.l	er4,er1
    2326:	0f d0       	0f d0             mov.l	er5,er0
    2328:	5e 00 1f ec 	5e 00 1f ec       jsr	@0x1fec:0
    232c:	5e 00 28 54 	5e 00 28 54       jsr	@0x2854:0
    2330:	01 00 6d 75 	01 00 6d 75       mov.l	@er7+,er5
    2334:	01 00 6d 74 	01 00 6d 74       mov.l	@er7+,er4
    2338:	7a 17 00 00 	7a 17 00 00 00 20 add.l	#0x20,er7
    233c:	00 20 
    233e:	01 00 6d 76 	01 00 6d 76       mov.l	@er7+,er6
    2342:	54 70       	54 70             rts	

00002344 <___divsf3>:
    2344:	01 00 6d f6 	01 00 6d f6       mov.l	er6,@-er7
    2348:	0f f6       	0f f6             mov.l	er7,er6
    234a:	7a 17 ff ff 	7a 17 ff ff ff e8 add.l	#0xffffffe8,er7
    234e:	ff e8 
    2350:	01 00 6d f4 	01 00 6d f4       mov.l	er4,@-er7
    2354:	01 00 6d f5 	01 00 6d f5       mov.l	er5,@-er7
    2358:	01 00 6f e0 	01 00 6f e0 ff ec mov.l	er0,@(0xffec:16,er6)
    235c:	ff ec 
    235e:	01 00 6f e1 	01 00 6f e1 ff e8 mov.l	er1,@(0xffe8:16,er6)
    2362:	ff e8 
    2364:	0f e5       	0f e5             mov.l	er6,er5
    2366:	1b 95       	1b 95             subs	#0x4,er5
    2368:	1b 95       	1b 95             subs	#0x4,er5
    236a:	0f d1       	0f d1             mov.l	er5,er1
    236c:	0f e0       	0f e0             mov.l	er6,er0
    236e:	7a 10 ff ff 	7a 10 ff ff ff ec add.l	#0xffffffec,er0
    2372:	ff ec 
    2374:	5e 00 29 ba 	5e 00 29 ba       jsr	@0x29ba:0
    2378:	0f e4       	0f e4             mov.l	er6,er4
    237a:	7a 14 ff ff 	7a 14 ff ff ff f0 add.l	#0xfffffff0,er4
    237e:	ff f0 
    2380:	0f c1       	0f c1             mov.l	er4,er1
    2382:	0f e0       	0f e0             mov.l	er6,er0
    2384:	7a 10 ff ff 	7a 10 ff ff ff e8 add.l	#0xffffffe8,er0
    2388:	ff e8 
    238a:	5e 00 29 ba 	5e 00 29 ba       jsr	@0x29ba:0
    238e:	19 22       	19 22             sub.w	r2,r2
    2390:	68 5b       	68 5b             mov.b	@er5,r3l
    2392:	ab 01       	ab 01             cmp.b	#0x1,r3l
    2394:	42 02       	42 02             bhi	.+2 (2398)
    2396:	0b 02       	0b 02             adds	#0x1,er2

00002398 <.L4>:
    2398:	0d 22       	0d 22             mov.w	r2,r2
    239a:	58 60 00 de 	58 60 00 de       bne	.+224 (247c)
    239e:	19 22       	19 22             sub.w	r2,r2
    23a0:	68 48       	68 48             mov.b	@er4,r0l
    23a2:	a8 01       	a8 01             cmp.b	#0x1,r0l
    23a4:	42 02       	42 02             bhi	.+2 (23a8)
    23a6:	0b 02       	0b 02             adds	#0x1,er2

000023a8 <.L8>:
    23a8:	0d 22       	0d 22             mov.w	r2,r2
    23aa:	47 06       	47 06             beq	.+6 (23b2)
    23ac:	0f c0       	0f c0             mov.l	er4,er0
    23ae:	58 00 00 cc 	58 00 00 cc       bra	.+206 (247e)

000023b2 <.L6>:
    23b2:	6e 6a ff f1 	6e 6a ff f1       mov.b	@(0xfff1:16,er6),r2l
    23b6:	6e 69 ff f9 	6e 69 ff f9       mov.b	@(0xfff9:16,er6),r1l
    23ba:	15 9a       	15 9a             xor	r1l,r2l
    23bc:	6e ea ff f9 	6e ea ff f9       mov.b	r2l,@(0xfff9:16,er6)
    23c0:	19 22       	19 22             sub.w	r2,r2
    23c2:	ab 04       	ab 04             cmp.b	#0x4,r3l
    23c4:	46 02       	46 02             bne	.+2 (23c8)
    23c6:	0b 02       	0b 02             adds	#0x1,er2

000023c8 <.L12>:
    23c8:	0d 22       	0d 22             mov.w	r2,r2
    23ca:	46 0c       	46 0c             bne	.+12 (23d8)
    23cc:	19 22       	19 22             sub.w	r2,r2
    23ce:	ab 02       	ab 02             cmp.b	#0x2,r3l
    23d0:	46 02       	46 02             bne	.+2 (23d4)
    23d2:	0b 02       	0b 02             adds	#0x1,er2

000023d4 <.L14>:
    23d4:	0d 22       	0d 22             mov.w	r2,r2
    23d6:	47 10       	47 10             beq	.+16 (23e8)

000023d8 <.L10>:
    23d8:	1c 8b       	1c 8b             cmp.b	r0l,r3l
    23da:	58 60 00 9e 	58 60 00 9e       bne	.+160 (247c)
    23de:	7a 00 00 00 	7a 00 00 00 31 30 mov.l	#0x3130,er0
    23e2:	31 30 
    23e4:	58 00 00 96 	58 00 00 96       bra	.+152 (247e)

000023e8 <.L9>:
    23e8:	19 22       	19 22             sub.w	r2,r2
    23ea:	a8 04       	a8 04             cmp.b	#0x4,r0l
    23ec:	46 02       	46 02             bne	.+2 (23f0)
    23ee:	0b 02       	0b 02             adds	#0x1,er2

000023f0 <.L19>:
    23f0:	0d 22       	0d 22             mov.w	r2,r2
    23f2:	47 0e       	47 0e             beq	.+14 (2402)
    23f4:	1a a2       	1a a2             sub.l	er2,er2
    23f6:	01 00 6f e2 	01 00 6f e2 ff fc mov.l	er2,@(0xfffc:16,er6)
    23fa:	ff fc 
    23fc:	6f e2 ff fa 	6f e2 ff fa       mov.w	r2,@(0xfffa:16,er6)
    2400:	40 7a       	40 7a             bra	.+122 (247c)

00002402 <.L17>:
    2402:	19 22       	19 22             sub.w	r2,r2
    2404:	a8 02       	a8 02             cmp.b	#0x2,r0l
    2406:	46 02       	46 02             bne	.+2 (240a)
    2408:	0b 02       	0b 02             adds	#0x1,er2

0000240a <.L22>:
    240a:	0d 22       	0d 22             mov.w	r2,r2
    240c:	47 06       	47 06             beq	.+6 (2414)
    240e:	fa 04       	fa 04             mov.b	#0x4,r2l
    2410:	68 da       	68 da             mov.b	r2l,@er5
    2412:	40 68       	40 68             bra	.+104 (247c)

00002414 <.L20>:
    2414:	6f 62 ff f2 	6f 62 ff f2       mov.w	@(0xfff2:16,er6),r2
    2418:	6f 63 ff fa 	6f 63 ff fa       mov.w	@(0xfffa:16,er6),r3
    241c:	19 23       	19 23             sub.w	r2,r3
    241e:	0d 32       	0d 32             mov.w	r3,r2
    2420:	6f e3 ff fa 	6f e3 ff fa       mov.w	r3,@(0xfffa:16,er6)
    2424:	01 00 6f 63 	01 00 6f 63 ff fc mov.l	@(0xfffc:16,er6),er3
    2428:	ff fc 
    242a:	01 00 6f 60 	01 00 6f 60 ff f4 mov.l	@(0xfff4:16,er6),er0
    242e:	ff f4 
    2430:	1f 83       	1f 83             cmp.l	er0,er3
    2432:	44 08       	44 08             bcc	.+8 (243c)
    2434:	0a b3       	0a b3             add.l	er3,er3
    2436:	1b 02       	1b 02             subs	#0x1,er2
    2438:	6f e2 ff fa 	6f e2 ff fa       mov.w	r2,@(0xfffa:16,er6)

0000243c <.L23>:
    243c:	7a 02 40 00 	7a 02 40 00 00 00 mov.l	#0x40000000,er2
    2440:	00 00 
    2442:	1a 91       	1a 91             sub.l	er1,er1

00002444 <.L28>:
    2444:	1f 83       	1f 83             cmp.l	er0,er3
    2446:	45 06       	45 06             bcs	.+6 (244e)
    2448:	01 f0 64 21 	01 f0 64 21       or.l	er2,er1
    244c:	1a 83       	1a 83             sub.l	er0,er3

0000244e <.L27>:
    244e:	11 32       	11 32             shlr	er2
    2450:	0a b3       	0a b3             add.l	er3,er3
    2452:	0f a2       	0f a2             mov.l	er2,er2
    2454:	46 ee       	46 ee             bne	.-18 (2444)
    2456:	0f 92       	0f 92             mov.l	er1,er2
    2458:	7a 62 00 00 	7a 62 00 00 00 7f and.l	#0x7f,er2
    245c:	00 7f 
    245e:	7a 22 00 00 	7a 22 00 00 00 40 cmp.l	#0x40,er2
    2462:	00 40 
    2464:	46 10       	46 10             bne	.+16 (2476)
    2466:	0c 9a       	0c 9a             mov.b	r1l,r2l
    2468:	ea 80       	ea 80             and.b	#0x80,r2l
    246a:	46 04       	46 04             bne	.+4 (2470)
    246c:	0f b3       	0f b3             mov.l	er3,er3
    246e:	47 06       	47 06             beq	.+6 (2476)

00002470 <.L35>:
    2470:	7a 11 00 00 	7a 11 00 00 00 40 add.l	#0x40,er1
    2474:	00 40 

00002476 <.L29>:
    2476:	01 00 6f d1 	01 00 6f d1 00 04 mov.l	er1,@(0x4:16,er5)
    247a:	00 04 

0000247c <.L36>:
    247c:	0f d0       	0f d0             mov.l	er5,er0

0000247e <.L5>:
    247e:	5e 00 28 54 	5e 00 28 54       jsr	@0x2854:0
    2482:	01 00 6d 75 	01 00 6d 75       mov.l	@er7+,er5
    2486:	01 00 6d 74 	01 00 6d 74       mov.l	@er7+,er4
    248a:	7a 17 00 00 	7a 17 00 00 00 18 add.l	#0x18,er7
    248e:	00 18 
    2490:	01 00 6d 76 	01 00 6d 76       mov.l	@er7+,er6
    2494:	54 70       	54 70             rts	

00002496 <___mulsf3>:
    2496:	01 00 6d f6 	01 00 6d f6       mov.l	er6,@-er7
    249a:	0f f6       	0f f6             mov.l	er7,er6
    249c:	7a 17 ff ff 	7a 17 ff ff ff cc add.l	#0xffffffcc,er7
    24a0:	ff cc 
    24a2:	01 00 6d f4 	01 00 6d f4       mov.l	er4,@-er7
    24a6:	01 00 6d f5 	01 00 6d f5       mov.l	er5,@-er7
    24aa:	01 00 6f e0 	01 00 6f e0 ff e4 mov.l	er0,@(0xffe4:16,er6)
    24ae:	ff e4 
    24b0:	01 00 6f e1 	01 00 6f e1 ff e0 mov.l	er1,@(0xffe0:16,er6)
    24b4:	ff e0 
    24b6:	0f e5       	0f e5             mov.l	er6,er5
    24b8:	1b 95       	1b 95             subs	#0x4,er5
    24ba:	1b 95       	1b 95             subs	#0x4,er5
    24bc:	0f d1       	0f d1             mov.l	er5,er1
    24be:	0f e0       	0f e0             mov.l	er6,er0
    24c0:	7a 10 ff ff 	7a 10 ff ff ff e4 add.l	#0xffffffe4,er0
    24c4:	ff e4 
    24c6:	5e 00 29 ba 	5e 00 29 ba       jsr	@0x29ba:0
    24ca:	7a 01 ff ff 	7a 01 ff ff ff f0 mov.l	#0xfffffff0,er1
    24ce:	ff f0 
    24d0:	0a e1       	0a e1             add.l	er6,er1
    24d2:	0f e0       	0f e0             mov.l	er6,er0
    24d4:	7a 10 ff ff 	7a 10 ff ff ff e0 add.l	#0xffffffe0,er0
    24d8:	ff e0 
    24da:	5e 00 29 ba 	5e 00 29 ba       jsr	@0x29ba:0
    24de:	1a a2       	1a a2             sub.l	er2,er2
    24e0:	01 00 6f e2 	01 00 6f e2 ff dc mov.l	er2,@(0xffdc:16,er6)
    24e4:	ff dc 
    24e6:	01 00 6f e2 	01 00 6f e2 ff d8 mov.l	er2,@(0xffd8:16,er6)
    24ea:	ff d8 
    24ec:	68 5b       	68 5b             mov.b	@er5,r3l
    24ee:	ab 01       	ab 01             cmp.b	#0x1,r3l
    24f0:	42 02       	42 02             bhi	.+2 (24f4)
    24f2:	0b 02       	0b 02             adds	#0x1,er2

000024f4 <.L4>:
    24f4:	0d 22       	0d 22             mov.w	r2,r2
    24f6:	46 58       	46 58             bne	.+88 (2550)
    24f8:	19 22       	19 22             sub.w	r2,r2
    24fa:	6e 68 ff f0 	6e 68 ff f0       mov.b	@(0xfff0:16,er6),r0l
    24fe:	a8 01       	a8 01             cmp.b	#0x1,r0l
    2500:	42 02       	42 02             bhi	.+2 (2504)
    2502:	0b 02       	0b 02             adds	#0x1,er2

00002504 <.L9>:
    2504:	0d 22       	0d 22             mov.w	r2,r2
    2506:	46 6e       	46 6e             bne	.+110 (2576)
    2508:	19 22       	19 22             sub.w	r2,r2
    250a:	ab 04       	ab 04             cmp.b	#0x4,r3l
    250c:	46 02       	46 02             bne	.+2 (2510)
    250e:	0b 02       	0b 02             adds	#0x1,er2

00002510 <.L13>:
    2510:	0d 22       	0d 22             mov.w	r2,r2
    2512:	47 0e       	47 0e             beq	.+14 (2522)
    2514:	19 22       	19 22             sub.w	r2,r2
    2516:	a8 02       	a8 02             cmp.b	#0x2,r0l
    2518:	46 02       	46 02             bne	.+2 (251c)
    251a:	0b 02       	0b 02             adds	#0x1,er2

0000251c <.L16>:
    251c:	0d 22       	0d 22             mov.w	r2,r2
    251e:	46 1a       	46 1a             bne	.+26 (253a)
    2520:	40 2e       	40 2e             bra	.+46 (2550)

00002522 <.L11>:
    2522:	19 22       	19 22             sub.w	r2,r2
    2524:	a8 04       	a8 04             cmp.b	#0x4,r0l
    2526:	46 02       	46 02             bne	.+2 (252a)
    2528:	0b 02       	0b 02             adds	#0x1,er2

0000252a <.L21>:
    252a:	0d 22       	0d 22             mov.w	r2,r2
    252c:	47 16       	47 16             beq	.+22 (2544)
    252e:	19 22       	19 22             sub.w	r2,r2
    2530:	ab 02       	ab 02             cmp.b	#0x2,r3l
    2532:	46 02       	46 02             bne	.+2 (2536)
    2534:	0b 02       	0b 02             adds	#0x1,er2

00002536 <.L24>:
    2536:	0d 22       	0d 22             mov.w	r2,r2
    2538:	47 3c       	47 3c             beq	.+60 (2576)

0000253a <.L66>:
    253a:	7a 00 00 00 	7a 00 00 00 31 30 mov.l	#0x3130,er0
    253e:	31 30 
    2540:	58 00 01 dc 	58 00 01 dc       bra	.+478 (2720)

00002544 <.L19>:
    2544:	19 22       	19 22             sub.w	r2,r2
    2546:	ab 02       	ab 02             cmp.b	#0x2,r3l
    2548:	46 02       	46 02             bne	.+2 (254c)
    254a:	0b 02       	0b 02             adds	#0x1,er2

0000254c <.L29>:
    254c:	0d 22       	0d 22             mov.w	r2,r2
    254e:	47 1a       	47 1a             beq	.+26 (256a)

00002550 <.L68>:
    2550:	18 88       	18 88             sub.b	r0l,r0l
    2552:	6e 6b ff f9 	6e 6b ff f9       mov.b	@(0xfff9:16,er6),r3l
    2556:	6e 6a ff f1 	6e 6a ff f1       mov.b	@(0xfff1:16,er6),r2l
    255a:	1c ab       	1c ab             cmp.b	r2l,r3l
    255c:	47 02       	47 02             beq	.+2 (2560)
    255e:	88 01       	88 01             add.b	#0x1,r0l

00002560 <.L30>:
    2560:	6e e8 ff f9 	6e e8 ff f9       mov.b	r0l,@(0xfff9:16,er6)
    2564:	0f d0       	0f d0             mov.l	er5,er0
    2566:	58 00 01 b6 	58 00 01 b6       bra	.+440 (2720)

0000256a <.L27>:
    256a:	19 22       	19 22             sub.w	r2,r2
    256c:	a8 02       	a8 02             cmp.b	#0x2,r0l
    256e:	46 02       	46 02             bne	.+2 (2572)
    2570:	0b 02       	0b 02             adds	#0x1,er2

00002572 <.L33>:
    2572:	0d 22       	0d 22             mov.w	r2,r2
    2574:	47 1e       	47 1e             beq	.+30 (2594)

00002576 <.L70>:
    2576:	18 88       	18 88             sub.b	r0l,r0l
    2578:	6e 6b ff f9 	6e 6b ff f9       mov.b	@(0xfff9:16,er6),r3l
    257c:	6e 6a ff f1 	6e 6a ff f1       mov.b	@(0xfff1:16,er6),r2l
    2580:	1c ab       	1c ab             cmp.b	r2l,r3l
    2582:	47 02       	47 02             beq	.+2 (2586)
    2584:	88 01       	88 01             add.b	#0x1,r0l

00002586 <.L34>:
    2586:	6e e8 ff f1 	6e e8 ff f1       mov.b	r0l,@(0xfff1:16,er6)
    258a:	7a 00 ff ff 	7a 00 ff ff ff f0 mov.l	#0xfffffff0,er0
    258e:	ff f0 
    2590:	58 00 01 8a 	58 00 01 8a       bra	.+396 (271e)

00002594 <.L31>:
    2594:	01 00 6f 60 	01 00 6f 60 ff fc mov.l	@(0xfffc:16,er6),er0
    2598:	ff fc 
    259a:	01 00 6f 63 	01 00 6f 63 ff f4 mov.l	@(0xfff4:16,er6),er3
    259e:	ff f4 
    25a0:	1a c4       	1a c4             sub.l	er4,er4
    25a2:	01 00 6f e4 	01 00 6f e4 ff cc mov.l	er4,@(0xffcc:16,er6)
    25a6:	ff cc 
    25a8:	79 01 00 1f 	79 01 00 1f       mov.w	#0x1f,r1

000025ac <.L42>:
    25ac:	0f 82       	0f 82             mov.l	er0,er2
    25ae:	7a 62 00 00 	7a 62 00 00 00 01 and.l	#0x1,er2
    25b2:	00 01 
    25b4:	0d 22       	0d 22             mov.w	r2,r2
    25b6:	47 3a       	47 3a             beq	.+58 (25f2)
    25b8:	19 22       	19 22             sub.w	r2,r2
    25ba:	6f e2 ff d6 	6f e2 ff d6       mov.w	r2,@(0xffd6:16,er6)
    25be:	01 00 6f 64 	01 00 6f 64 ff dc mov.l	@(0xffdc:16,er6),er4
    25c2:	ff dc 
    25c4:	0a b4       	0a b4             add.l	er3,er4
    25c6:	01 00 6f e4 	01 00 6f e4 ff dc mov.l	er4,@(0xffdc:16,er6)
    25ca:	ff dc 
    25cc:	1f b4       	1f b4             cmp.l	er3,er4
    25ce:	44 06       	44 06             bcc	.+6 (25d6)
    25d0:	0b 02       	0b 02             adds	#0x1,er2
    25d2:	6f e2 ff d6 	6f e2 ff d6       mov.w	r2,@(0xffd6:16,er6)

000025d6 <.L40>:
    25d6:	6f 62 ff d6 	6f 62 ff d6       mov.w	@(0xffd6:16,er6),r2
    25da:	17 f2       	17 f2             exts.l	er2
    25dc:	01 00 6f 64 	01 00 6f 64 ff cc mov.l	@(0xffcc:16,er6),er4
    25e0:	ff cc 
    25e2:	0a a4       	0a a4             add.l	er2,er4
    25e4:	01 00 6f 62 	01 00 6f 62 ff d8 mov.l	@(0xffd8:16,er6),er2
    25e8:	ff d8 
    25ea:	0a c2       	0a c2             add.l	er4,er2
    25ec:	01 00 6f e2 	01 00 6f e2 ff d8 mov.l	er2,@(0xffd8:16,er6)
    25f0:	ff d8 

000025f2 <.L39>:
    25f2:	01 00 6f 62 	01 00 6f 62 ff cc mov.l	@(0xffcc:16,er6),er2
    25f6:	ff cc 
    25f8:	10 32       	10 32             shll	er2
    25fa:	01 00 6f e2 	01 00 6f e2 ff cc mov.l	er2,@(0xffcc:16,er6)
    25fe:	ff cc 
    2600:	0f b3       	0f b3             mov.l	er3,er3
    2602:	4c 0a       	4c 0a             bge	.+10 (260e)
    2604:	0f a4       	0f a4             mov.l	er2,er4
    2606:	cc 01       	cc 01             or.b	#0x1,r4l
    2608:	01 00 6f e4 	01 00 6f e4 ff cc mov.l	er4,@(0xffcc:16,er6)
    260c:	ff cc 

0000260e <.L41>:
    260e:	10 33       	10 33             shll	er3
    2610:	11 30       	11 30             shlr	er0
    2612:	1b 01       	1b 01             subs	#0x1,er1
    2614:	0d 11       	0d 11             mov.w	r1,r1
    2616:	4c 94       	4c 94             bge	.-108 (25ac)
    2618:	6f 52 00 02 	6f 52 00 02       mov.w	@(0x2:16,er5),r2
    261c:	6f 63 ff f2 	6f 63 ff f2       mov.w	@(0xfff2:16,er6),r3
    2620:	09 32       	09 32             add.w	r3,r2
    2622:	0b 82       	0b 82             adds	#0x2,er2
    2624:	6f e2 ff ea 	6f e2 ff ea       mov.w	r2,@(0xffea:16,er6)
    2628:	18 88       	18 88             sub.b	r0l,r0l
    262a:	6e 5b 00 01 	6e 5b 00 01       mov.b	@(0x1:16,er5),r3l
    262e:	6e 6a ff f1 	6e 6a ff f1       mov.b	@(0xfff1:16,er6),r2l
    2632:	1c ab       	1c ab             cmp.b	r2l,r3l
    2634:	47 02       	47 02             beq	.+2 (2638)
    2636:	88 01       	88 01             add.b	#0x1,r0l

00002638 <.L43>:
    2638:	6e e8 ff e9 	6e e8 ff e9       mov.b	r0l,@(0xffe9:16,er6)
    263c:	01 00 6f 62 	01 00 6f 62 ff d8 mov.l	@(0xffd8:16,er6),er2
    2640:	ff d8 
    2642:	4c 3a       	4c 3a             bge	.+58 (267e)
    2644:	6f 62 ff ea 	6f 62 ff ea       mov.w	@(0xffea:16,er6),r2
    2648:	0b 02       	0b 02             adds	#0x1,er2
    264a:	6f e2 ff ea 	6f e2 ff ea       mov.w	r2,@(0xffea:16,er6)
    264e:	01 00 6f 62 	01 00 6f 62 ff d8 mov.l	@(0xffd8:16,er6),er2
    2652:	ff d8 
    2654:	7a 62 00 00 	7a 62 00 00 00 01 and.l	#0x1,er2
    2658:	00 01 
    265a:	0d 22       	0d 22             mov.w	r2,r2
    265c:	47 12       	47 12             beq	.+18 (2670)
    265e:	01 00 6f 64 	01 00 6f 64 ff dc mov.l	@(0xffdc:16,er6),er4
    2662:	ff dc 
    2664:	11 34       	11 34             shlr	er4
    2666:	79 4c 80 00 	79 4c 80 00       or.w	#0x8000,e4
    266a:	01 00 6f e4 	01 00 6f e4 ff dc mov.l	er4,@(0xffdc:16,er6)
    266e:	ff dc 

00002670 <.L47>:
    2670:	01 00 6f 62 	01 00 6f 62 ff d8 mov.l	@(0xffd8:16,er6),er2
    2674:	ff d8 
    2676:	11 32       	11 32             shlr	er2
    2678:	01 00 6f e2 	01 00 6f e2 ff d8 mov.l	er2,@(0xffd8:16,er6)
    267c:	ff d8 

0000267e <.L61>:
    267e:	01 00 6f 64 	01 00 6f 64 ff d8 mov.l	@(0xffd8:16,er6),er4
    2682:	ff d8 
    2684:	7a 24 3f ff 	7a 24 3f ff ff ff cmp.l	#0x3fffffff,er4
    2688:	ff ff 
    268a:	42 44       	42 44             bhi	.+68 (26d0)

0000268c <.L53>:
    268c:	6f 62 ff ea 	6f 62 ff ea       mov.w	@(0xffea:16,er6),r2
    2690:	1b 02       	1b 02             subs	#0x1,er2
    2692:	6f e2 ff ea 	6f e2 ff ea       mov.w	r2,@(0xffea:16,er6)
    2696:	01 00 6f 62 	01 00 6f 62 ff d8 mov.l	@(0xffd8:16,er6),er2
    269a:	ff d8 
    269c:	10 32       	10 32             shll	er2
    269e:	01 00 6f e2 	01 00 6f e2 ff d8 mov.l	er2,@(0xffd8:16,er6)
    26a2:	ff d8 
    26a4:	01 00 6f 64 	01 00 6f 64 ff dc mov.l	@(0xffdc:16,er6),er4
    26a8:	ff dc 
    26aa:	4c 08       	4c 08             bge	.+8 (26b4)
    26ac:	ca 01       	ca 01             or.b	#0x1,r2l
    26ae:	01 00 6f e2 	01 00 6f e2 ff d8 mov.l	er2,@(0xffd8:16,er6)
    26b2:	ff d8 

000026b4 <.L52>:
    26b4:	01 00 6f 62 	01 00 6f 62 ff dc mov.l	@(0xffdc:16,er6),er2
    26b8:	ff dc 
    26ba:	10 32       	10 32             shll	er2
    26bc:	01 00 6f e2 	01 00 6f e2 ff dc mov.l	er2,@(0xffdc:16,er6)
    26c0:	ff dc 
    26c2:	01 00 6f 64 	01 00 6f 64 ff d8 mov.l	@(0xffd8:16,er6),er4
    26c6:	ff d8 
    26c8:	7a 24 3f ff 	7a 24 3f ff ff ff cmp.l	#0x3fffffff,er4
    26cc:	ff ff 
    26ce:	43 bc       	43 bc             bls	.-68 (268c)

000026d0 <.L63>:
    26d0:	01 00 6f 62 	01 00 6f 62 ff d8 mov.l	@(0xffd8:16,er6),er2
    26d4:	ff d8 
    26d6:	7a 62 00 00 	7a 62 00 00 00 7f and.l	#0x7f,er2
    26da:	00 7f 
    26dc:	7a 22 00 00 	7a 22 00 00 00 40 cmp.l	#0x40,er2
    26e0:	00 40 
    26e2:	46 22       	46 22             bne	.+34 (2706)
    26e4:	6e 6a ff db 	6e 6a ff db       mov.b	@(0xffdb:16,er6),r2l
    26e8:	ea 80       	ea 80             and.b	#0x80,r2l
    26ea:	46 08       	46 08             bne	.+8 (26f4)
    26ec:	01 00 6f 64 	01 00 6f 64 ff dc mov.l	@(0xffdc:16,er6),er4
    26f0:	ff dc 
    26f2:	47 12       	47 12             beq	.+18 (2706)

000026f4 <.L64>:
    26f4:	01 00 6f 62 	01 00 6f 62 ff d8 mov.l	@(0xffd8:16,er6),er2
    26f8:	ff d8 
    26fa:	7a 12 00 00 	7a 12 00 00 00 40 add.l	#0x40,er2
    26fe:	00 40 
    2700:	01 00 6f e2 	01 00 6f e2 ff d8 mov.l	er2,@(0xffd8:16,er6)
    2704:	ff d8 

00002706 <.L54>:
    2706:	01 00 6f 64 	01 00 6f 64 ff d8 mov.l	@(0xffd8:16,er6),er4
    270a:	ff d8 
    270c:	01 00 6f e4 	01 00 6f e4 ff ec mov.l	er4,@(0xffec:16,er6)
    2710:	ff ec 
    2712:	fa 03       	fa 03             mov.b	#0x3,r2l
    2714:	6e ea ff e8 	6e ea ff e8       mov.b	r2l,@(0xffe8:16,er6)
    2718:	7a 00 ff ff 	7a 00 ff ff ff e8 mov.l	#0xffffffe8,er0
    271c:	ff e8 

0000271e <.L65>:
    271e:	0a e0       	0a e0             add.l	er6,er0

00002720 <.L6>:
    2720:	5e 00 28 54 	5e 00 28 54       jsr	@0x2854:0
    2724:	01 00 6d 75 	01 00 6d 75       mov.l	@er7+,er5
    2728:	01 00 6d 74 	01 00 6d 74       mov.l	@er7+,er4
    272c:	7a 17 00 00 	7a 17 00 00 00 34 add.l	#0x34,er7
    2730:	00 34 
    2732:	01 00 6d 76 	01 00 6d 76       mov.l	@er7+,er6
    2736:	54 70       	54 70             rts	

00002738 <___fixunssfsi>:
    2738:	01 00 6d f6 	01 00 6d f6       mov.l	er6,@-er7
    273c:	0f f6       	0f f6             mov.l	er7,er6
    273e:	01 00 6d f4 	01 00 6d f4       mov.l	er4,@-er7
    2742:	0f 84       	0f 84             mov.l	er0,er4
    2744:	7a 01 4f 00 	7a 01 4f 00 00 00 mov.l	#0x4f000000,er1
    2748:	00 00 
    274a:	5e 00 2a 74 	5e 00 2a 74       jsr	@0x2a74:0
    274e:	0f 80       	0f 80             mov.l	er0,er0
    2750:	4d 16       	4d 16             blt	.+22 (2768)
    2752:	7a 01 cf 00 	7a 01 cf 00 00 00 mov.l	#0xcf000000,er1
    2756:	00 00 
    2758:	0f c0       	0f c0             mov.l	er4,er0
    275a:	5e 00 22 56 	5e 00 22 56       jsr	@0x2256:0
    275e:	5e 00 2a fe 	5e 00 2a fe       jsr	@0x2afe:0
    2762:	79 18 80 00 	79 18 80 00       add.w	#0x8000,e0
    2766:	40 06       	40 06             bra	.+6 (276e)

00002768 <.L2>:
    2768:	0f c0       	0f c0             mov.l	er4,er0
    276a:	5e 00 2a fe 	5e 00 2a fe       jsr	@0x2afe:0

0000276e <.L1>:
    276e:	01 00 6d 74 	01 00 6d 74       mov.l	@er7+,er4
    2772:	01 00 6d 76 	01 00 6d 76       mov.l	@er7+,er6
    2776:	54 70       	54 70             rts	

00002778 <divnorm>:
    2778:	fe 00       	fe 00             mov.b	#0x0,r6l
    277a:	0f 80       	0f 80             mov.l	er0,er0
    277c:	4c 04       	4c 04             bge	.+4 (2782)
    277e:	17 b0       	17 b0             neg.l	er0
    2780:	fe 01       	fe 01             mov.b	#0x1,r6l

00002782 <postive>:
    2782:	0f 91       	0f 91             mov.l	er1,er1
    2784:	4c 04       	4c 04             bge	.+4 (278a)
    2786:	17 b1       	17 b1             neg.l	er1
    2788:	de 01       	de 01             xor	#0x1,r6l

0000278a <postive2>:
    278a:	54 70       	54 70             rts	

0000278c <modnorm>:
    278c:	fe 00       	fe 00             mov.b	#0x0,r6l
    278e:	0f 80       	0f 80             mov.l	er0,er0
    2790:	4c 04       	4c 04             bge	.+4 (2796)
    2792:	17 b0       	17 b0             neg.l	er0
    2794:	fe 01       	fe 01             mov.b	#0x1,r6l

00002796 <mpostive>:
    2796:	0f 91       	0f 91             mov.l	er1,er1
    2798:	4c 02       	4c 02             bge	.+2 (279c)
    279a:	17 b1       	17 b1             neg.l	er1

0000279c <mpostive2>:
    279c:	54 70       	54 70             rts	

0000279e <___modsi3>:
    279e:	01 00 6d f6 	01 00 6d f6       mov.l	er6,@-er7
    27a2:	01 00 6d f4 	01 00 6d f4       mov.l	er4,@-er7
    27a6:	01 00 6d f5 	01 00 6d f5       mov.l	er5,@-er7
    27aa:	55 e0       	55 e0             bsr	.-32 (278c)
    27ac:	55 4e       	55 4e             bsr	.+78 (27fc)
    27ae:	0f c0       	0f c0             mov.l	er4,er0
    27b0:	40 36       	40 36             bra	.+54 (27e8)

000027b2 <___udivsi3>:
    27b2:	01 00 6d f6 	01 00 6d f6       mov.l	er6,@-er7
    27b6:	01 00 6d f4 	01 00 6d f4       mov.l	er4,@-er7
    27ba:	01 00 6d f5 	01 00 6d f5       mov.l	er5,@-er7
    27be:	fe 00       	fe 00             mov.b	#0x0,r6l
    27c0:	55 3a       	55 3a             bsr	.+58 (27fc)
    27c2:	40 24       	40 24             bra	.+36 (27e8)

000027c4 <___umodsi3>:
    27c4:	01 00 6d f6 	01 00 6d f6       mov.l	er6,@-er7
    27c8:	01 00 6d f4 	01 00 6d f4       mov.l	er4,@-er7
    27cc:	01 00 6d f5 	01 00 6d f5       mov.l	er5,@-er7
    27d0:	fe 00       	fe 00             mov.b	#0x0,r6l
    27d2:	55 28       	55 28             bsr	.+40 (27fc)
    27d4:	0f c0       	0f c0             mov.l	er4,er0
    27d6:	40 10       	40 10             bra	.+16 (27e8)

000027d8 <___divsi3>:
    27d8:	01 00 6d f6 	01 00 6d f6       mov.l	er6,@-er7
    27dc:	01 00 6d f4 	01 00 6d f4       mov.l	er4,@-er7
    27e0:	01 00 6d f5 	01 00 6d f5       mov.l	er5,@-er7
    27e4:	55 92       	55 92             bsr	.-110 (2778)
    27e6:	55 14       	55 14             bsr	.+20 (27fc)

000027e8 <exitdiv>:
    27e8:	01 00 6d 75 	01 00 6d 75       mov.l	@er7+,er5
    27ec:	01 00 6d 74 	01 00 6d 74       mov.l	@er7+,er4
    27f0:	14 ee       	14 ee             or.b	r6l,r6l
    27f2:	47 02       	47 02             beq	.+2 (27f6)
    27f4:	17 b0       	17 b0             neg.l	er0

000027f6 <reti>:
    27f6:	01 00 6d 76 	01 00 6d 76       mov.l	@er7+,er6
    27fa:	54 70       	54 70             rts	

000027fc <divmodsi4>:
    27fc:	1a c4       	1a c4             sub.l	er4,er4
    27fe:	0d 99       	0d 99             mov.w	e1,e1
    2800:	46 12       	46 12             bne	.+18 (2814)
    2802:	0d 82       	0d 82             mov.w	e0,r2
    2804:	17 72       	17 72             extu.l	er2
    2806:	53 12       	53 12             divxu.w	r1,er2
    2808:	0d a8       	0d a8             mov.w	e2,e0
    280a:	53 10       	53 10             divxu.w	r1,er0
    280c:	0d 84       	0d 84             mov.w	e0,r4
    280e:	0d 28       	0d 28             mov.w	r2,e0
    2810:	17 74       	17 74             extu.l	er4
    2812:	54 70       	54 70             rts	

00002814 <DenHighZero>:
    2814:	0d 82       	0d 82             mov.w	e0,r2
    2816:	0c 2c       	0c 2c             mov.b	r2h,r4l
    2818:	0c a2       	0c a2             mov.b	r2l,r2h
    281a:	0c 0a       	0c 0a             mov.b	r0h,r2l
    281c:	0d 28       	0d 28             mov.w	r2,e0
    281e:	0c 80       	0c 80             mov.b	r0l,r0h
    2820:	f8 00       	f8 00             mov.b	#0x0,r0l
    2822:	f6 18       	f6 18             mov.b	#0x18,r6h

00002824 <nextbit>:
    2824:	10 30       	10 30             shll	er0
    2826:	12 34       	12 34             rotxl	er4
    2828:	1a 94       	1a 94             sub.l	er1,er4
    282a:	44 08       	44 08             bcc	.+8 (2834)
    282c:	0a 94       	0a 94             add.l	er1,er4
    282e:	1a 06       	1a 06             dec.b	r6h
    2830:	46 f2       	46 f2             bne	.-14 (2824)
    2832:	54 70       	54 70             rts	

00002834 <setone>:
    2834:	0a 08       	0a 08             inc	r0l
    2836:	1a 06       	1a 06             dec.b	r6h
    2838:	46 ea       	46 ea             bne	.-22 (2824)
    283a:	54 70       	54 70             rts	

0000283c <___mulsi3>:
    283c:	0d 12       	0d 12             mov.w	r1,r2
    283e:	52 02       	52 02             mulxu.w	r0,er2
    2840:	0d 83       	0d 83             mov.w	e0,r3
    2842:	47 04       	47 04             beq	.+4 (2848)
    2844:	52 13       	52 13             mulxu.w	r1,er3
    2846:	09 3a       	09 3a             add.w	r3,e2
    2848:	0d 93       	0d 93             mov.w	e1,r3
    284a:	47 04       	47 04             beq	.+4 (2850)
    284c:	52 03       	52 03             mulxu.w	r0,er3
    284e:	09 3a       	09 3a             add.w	r3,e2
    2850:	0f a0       	0f a0             mov.l	er2,er0
    2852:	54 70       	54 70             rts	

00002854 <___pack_f>:
    2854:	01 00 6d f6 	01 00 6d f6       mov.l	er6,@-er7
    2858:	0f f6       	0f f6             mov.l	er7,er6
    285a:	1b 97       	1b 97             subs	#0x4,er7
    285c:	01 00 6d f4 	01 00 6d f4       mov.l	er4,@-er7
    2860:	01 00 6d f5 	01 00 6d f5       mov.l	er5,@-er7
    2864:	0f 83       	0f 83             mov.l	er0,er3
    2866:	01 00 6f 00 	01 00 6f 00 00 04 mov.l	@(0x4:16,er0),er0
    286a:	00 04 
    286c:	6e 3d 00 01 	6e 3d 00 01       mov.b	@(0x1:16,er3),r5l
    2870:	17 55       	17 55             extu.w	r5
    2872:	19 44       	19 44             sub.w	r4,r4
    2874:	19 11       	19 11             sub.w	r1,r1
    2876:	68 3a       	68 3a             mov.b	@er3,r2l
    2878:	aa 01       	aa 01             cmp.b	#0x1,r2l
    287a:	42 02       	42 02             bhi	.+2 (287e)
    287c:	0b 01       	0b 01             adds	#0x1,er1

0000287e <.L6>:
    287e:	0d 11       	0d 11             mov.w	r1,r1
    2880:	47 0c       	47 0c             beq	.+12 (288e)
    2882:	79 04 00 ff 	79 04 00 ff       mov.w	#0xff,r4
    2886:	79 48 00 10 	79 48 00 10       or.w	#0x10,e0
    288a:	58 00 00 f8 	58 00 00 f8       bra	.+250 (2986)

0000288e <.L4>:
    288e:	19 11       	19 11             sub.w	r1,r1
    2890:	aa 04       	aa 04             cmp.b	#0x4,r2l
    2892:	46 02       	46 02             bne	.+2 (2896)
    2894:	0b 01       	0b 01             adds	#0x1,er1

00002896 <.L11>:
    2896:	0d 11       	0d 11             mov.w	r1,r1
    2898:	58 60 00 a8 	58 60 00 a8       bne	.+170 (2944)
    289c:	19 11       	19 11             sub.w	r1,r1
    289e:	aa 02       	aa 02             cmp.b	#0x2,r2l
    28a0:	46 02       	46 02             bne	.+2 (28a4)
    28a2:	0b 01       	0b 01             adds	#0x1,er1

000028a4 <.L15>:
    28a4:	0d 11       	0d 11             mov.w	r1,r1
    28a6:	58 60 00 9e 	58 60 00 9e       bne	.+160 (2948)
    28aa:	0f 80       	0f 80             mov.l	er0,er0
    28ac:	58 70 00 d6 	58 70 00 d6       beq	.+216 (2986)
    28b0:	6f 32 00 02 	6f 32 00 02       mov.w	@(0x2:16,er3),r2
    28b4:	79 22 ff 82 	79 22 ff 82       cmp.w	#0xff82,r2
    28b8:	58 c0 00 82 	58 c0 00 82       bge	.+132 (293e)
    28bc:	79 03 ff 82 	79 03 ff 82       mov.w	#0xff82,r3
    28c0:	19 23       	19 23             sub.w	r2,r3
    28c2:	79 23 00 19 	79 23 00 19       cmp.w	#0x19,r3
    28c6:	4f 04       	4f 04             ble	.+4 (28cc)
    28c8:	1a 80       	1a 80             sub.l	er0,er0
    28ca:	40 38       	40 38             bra	.+56 (2904)

000028cc <.L20>:
    28cc:	19 11       	19 11             sub.w	r1,r1
    28ce:	6f e1 ff fe 	6f e1 ff fe       mov.w	r1,@(0xfffe:16,er6)
    28d2:	1a a2       	1a a2             sub.l	er2,er2
    28d4:	8a 01       	8a 01             add.b	#0x1,r2l
    28d6:	0c b9       	0c b9             mov.b	r3l,r1l
    28d8:	4f 06       	4f 06             ble	.+6 (28e0)

000028da <.Llt1>:
    28da:	10 32       	10 32             shll	er2
    28dc:	89 ff       	89 ff             add.b	#0xff,r1l
    28de:	46 fa       	46 fa             bne	.-6 (28da)

000028e0 <.Lle1>:
    28e0:	1b 02       	1b 02             subs	#0x1,er2
    28e2:	01 f0 66 02 	01 f0 66 02       and.l	er0,er2
    28e6:	47 08       	47 08             beq	.+8 (28f0)
    28e8:	79 02 00 01 	79 02 00 01       mov.w	#0x1,r2
